
rtarget:     file format elf64-x86-64


Disassembly of section .init:

0000000000400c48 <_init>:
  400c48:	48 83 ec 08          	sub    $0x8,%rsp
  400c4c:	48 8b 05 a5 43 20 00 	mov    0x2043a5(%rip),%rax        # 604ff8 <__gmon_start__>
  400c53:	48 85 c0             	test   %rax,%rax
  400c56:	74 05                	je     400c5d <_init+0x15>
  400c58:	e8 43 02 00 00       	callq  400ea0 <__gmon_start__@plt>
  400c5d:	48 83 c4 08          	add    $0x8,%rsp
  400c61:	c3                   	retq   

Disassembly of section .plt:

0000000000400c70 <.plt>:
  400c70:	ff 35 92 43 20 00    	pushq  0x204392(%rip)        # 605008 <_GLOBAL_OFFSET_TABLE_+0x8>
  400c76:	ff 25 94 43 20 00    	jmpq   *0x204394(%rip)        # 605010 <_GLOBAL_OFFSET_TABLE_+0x10>
  400c7c:	0f 1f 40 00          	nopl   0x0(%rax)

0000000000400c80 <strcasecmp@plt>:
  400c80:	ff 25 92 43 20 00    	jmpq   *0x204392(%rip)        # 605018 <strcasecmp@GLIBC_2.2.5>
  400c86:	68 00 00 00 00       	pushq  $0x0
  400c8b:	e9 e0 ff ff ff       	jmpq   400c70 <.plt>

0000000000400c90 <__errno_location@plt>:
  400c90:	ff 25 8a 43 20 00    	jmpq   *0x20438a(%rip)        # 605020 <__errno_location@GLIBC_2.2.5>
  400c96:	68 01 00 00 00       	pushq  $0x1
  400c9b:	e9 d0 ff ff ff       	jmpq   400c70 <.plt>

0000000000400ca0 <srandom@plt>:
  400ca0:	ff 25 82 43 20 00    	jmpq   *0x204382(%rip)        # 605028 <srandom@GLIBC_2.2.5>
  400ca6:	68 02 00 00 00       	pushq  $0x2
  400cab:	e9 c0 ff ff ff       	jmpq   400c70 <.plt>

0000000000400cb0 <strncmp@plt>:
  400cb0:	ff 25 7a 43 20 00    	jmpq   *0x20437a(%rip)        # 605030 <strncmp@GLIBC_2.2.5>
  400cb6:	68 03 00 00 00       	pushq  $0x3
  400cbb:	e9 b0 ff ff ff       	jmpq   400c70 <.plt>

0000000000400cc0 <strcpy@plt>:
  400cc0:	ff 25 72 43 20 00    	jmpq   *0x204372(%rip)        # 605038 <strcpy@GLIBC_2.2.5>
  400cc6:	68 04 00 00 00       	pushq  $0x4
  400ccb:	e9 a0 ff ff ff       	jmpq   400c70 <.plt>

0000000000400cd0 <puts@plt>:
  400cd0:	ff 25 6a 43 20 00    	jmpq   *0x20436a(%rip)        # 605040 <puts@GLIBC_2.2.5>
  400cd6:	68 05 00 00 00       	pushq  $0x5
  400cdb:	e9 90 ff ff ff       	jmpq   400c70 <.plt>

0000000000400ce0 <write@plt>:
  400ce0:	ff 25 62 43 20 00    	jmpq   *0x204362(%rip)        # 605048 <write@GLIBC_2.2.5>
  400ce6:	68 06 00 00 00       	pushq  $0x6
  400ceb:	e9 80 ff ff ff       	jmpq   400c70 <.plt>

0000000000400cf0 <__stack_chk_fail@plt>:
  400cf0:	ff 25 5a 43 20 00    	jmpq   *0x20435a(%rip)        # 605050 <__stack_chk_fail@GLIBC_2.4>
  400cf6:	68 07 00 00 00       	pushq  $0x7
  400cfb:	e9 70 ff ff ff       	jmpq   400c70 <.plt>

0000000000400d00 <mmap@plt>:
  400d00:	ff 25 52 43 20 00    	jmpq   *0x204352(%rip)        # 605058 <mmap@GLIBC_2.2.5>
  400d06:	68 08 00 00 00       	pushq  $0x8
  400d0b:	e9 60 ff ff ff       	jmpq   400c70 <.plt>

0000000000400d10 <memset@plt>:
  400d10:	ff 25 4a 43 20 00    	jmpq   *0x20434a(%rip)        # 605060 <memset@GLIBC_2.2.5>
  400d16:	68 09 00 00 00       	pushq  $0x9
  400d1b:	e9 50 ff ff ff       	jmpq   400c70 <.plt>

0000000000400d20 <alarm@plt>:
  400d20:	ff 25 42 43 20 00    	jmpq   *0x204342(%rip)        # 605068 <alarm@GLIBC_2.2.5>
  400d26:	68 0a 00 00 00       	pushq  $0xa
  400d2b:	e9 40 ff ff ff       	jmpq   400c70 <.plt>

0000000000400d30 <close@plt>:
  400d30:	ff 25 3a 43 20 00    	jmpq   *0x20433a(%rip)        # 605070 <close@GLIBC_2.2.5>
  400d36:	68 0b 00 00 00       	pushq  $0xb
  400d3b:	e9 30 ff ff ff       	jmpq   400c70 <.plt>

0000000000400d40 <read@plt>:
  400d40:	ff 25 32 43 20 00    	jmpq   *0x204332(%rip)        # 605078 <read@GLIBC_2.2.5>
  400d46:	68 0c 00 00 00       	pushq  $0xc
  400d4b:	e9 20 ff ff ff       	jmpq   400c70 <.plt>

0000000000400d50 <__libc_start_main@plt>:
  400d50:	ff 25 2a 43 20 00    	jmpq   *0x20432a(%rip)        # 605080 <__libc_start_main@GLIBC_2.2.5>
  400d56:	68 0d 00 00 00       	pushq  $0xd
  400d5b:	e9 10 ff ff ff       	jmpq   400c70 <.plt>

0000000000400d60 <signal@plt>:
  400d60:	ff 25 22 43 20 00    	jmpq   *0x204322(%rip)        # 605088 <signal@GLIBC_2.2.5>
  400d66:	68 0e 00 00 00       	pushq  $0xe
  400d6b:	e9 00 ff ff ff       	jmpq   400c70 <.plt>

0000000000400d70 <gethostbyname@plt>:
  400d70:	ff 25 1a 43 20 00    	jmpq   *0x20431a(%rip)        # 605090 <gethostbyname@GLIBC_2.2.5>
  400d76:	68 0f 00 00 00       	pushq  $0xf
  400d7b:	e9 f0 fe ff ff       	jmpq   400c70 <.plt>

0000000000400d80 <__memmove_chk@plt>:
  400d80:	ff 25 12 43 20 00    	jmpq   *0x204312(%rip)        # 605098 <__memmove_chk@GLIBC_2.3.4>
  400d86:	68 10 00 00 00       	pushq  $0x10
  400d8b:	e9 e0 fe ff ff       	jmpq   400c70 <.plt>

0000000000400d90 <strtol@plt>:
  400d90:	ff 25 0a 43 20 00    	jmpq   *0x20430a(%rip)        # 6050a0 <strtol@GLIBC_2.2.5>
  400d96:	68 11 00 00 00       	pushq  $0x11
  400d9b:	e9 d0 fe ff ff       	jmpq   400c70 <.plt>

0000000000400da0 <memcpy@plt>:
  400da0:	ff 25 02 43 20 00    	jmpq   *0x204302(%rip)        # 6050a8 <memcpy@GLIBC_2.14>
  400da6:	68 12 00 00 00       	pushq  $0x12
  400dab:	e9 c0 fe ff ff       	jmpq   400c70 <.plt>

0000000000400db0 <time@plt>:
  400db0:	ff 25 fa 42 20 00    	jmpq   *0x2042fa(%rip)        # 6050b0 <time@GLIBC_2.2.5>
  400db6:	68 13 00 00 00       	pushq  $0x13
  400dbb:	e9 b0 fe ff ff       	jmpq   400c70 <.plt>

0000000000400dc0 <random@plt>:
  400dc0:	ff 25 f2 42 20 00    	jmpq   *0x2042f2(%rip)        # 6050b8 <random@GLIBC_2.2.5>
  400dc6:	68 14 00 00 00       	pushq  $0x14
  400dcb:	e9 a0 fe ff ff       	jmpq   400c70 <.plt>

0000000000400dd0 <_IO_getc@plt>:
  400dd0:	ff 25 ea 42 20 00    	jmpq   *0x2042ea(%rip)        # 6050c0 <_IO_getc@GLIBC_2.2.5>
  400dd6:	68 15 00 00 00       	pushq  $0x15
  400ddb:	e9 90 fe ff ff       	jmpq   400c70 <.plt>

0000000000400de0 <__isoc99_sscanf@plt>:
  400de0:	ff 25 e2 42 20 00    	jmpq   *0x2042e2(%rip)        # 6050c8 <__isoc99_sscanf@GLIBC_2.7>
  400de6:	68 16 00 00 00       	pushq  $0x16
  400deb:	e9 80 fe ff ff       	jmpq   400c70 <.plt>

0000000000400df0 <munmap@plt>:
  400df0:	ff 25 da 42 20 00    	jmpq   *0x2042da(%rip)        # 6050d0 <munmap@GLIBC_2.2.5>
  400df6:	68 17 00 00 00       	pushq  $0x17
  400dfb:	e9 70 fe ff ff       	jmpq   400c70 <.plt>

0000000000400e00 <__printf_chk@plt>:
  400e00:	ff 25 d2 42 20 00    	jmpq   *0x2042d2(%rip)        # 6050d8 <__printf_chk@GLIBC_2.3.4>
  400e06:	68 18 00 00 00       	pushq  $0x18
  400e0b:	e9 60 fe ff ff       	jmpq   400c70 <.plt>

0000000000400e10 <fopen@plt>:
  400e10:	ff 25 ca 42 20 00    	jmpq   *0x2042ca(%rip)        # 6050e0 <fopen@GLIBC_2.2.5>
  400e16:	68 19 00 00 00       	pushq  $0x19
  400e1b:	e9 50 fe ff ff       	jmpq   400c70 <.plt>

0000000000400e20 <getopt@plt>:
  400e20:	ff 25 c2 42 20 00    	jmpq   *0x2042c2(%rip)        # 6050e8 <getopt@GLIBC_2.2.5>
  400e26:	68 1a 00 00 00       	pushq  $0x1a
  400e2b:	e9 40 fe ff ff       	jmpq   400c70 <.plt>

0000000000400e30 <strtoul@plt>:
  400e30:	ff 25 ba 42 20 00    	jmpq   *0x2042ba(%rip)        # 6050f0 <strtoul@GLIBC_2.2.5>
  400e36:	68 1b 00 00 00       	pushq  $0x1b
  400e3b:	e9 30 fe ff ff       	jmpq   400c70 <.plt>

0000000000400e40 <gethostname@plt>:
  400e40:	ff 25 b2 42 20 00    	jmpq   *0x2042b2(%rip)        # 6050f8 <gethostname@GLIBC_2.2.5>
  400e46:	68 1c 00 00 00       	pushq  $0x1c
  400e4b:	e9 20 fe ff ff       	jmpq   400c70 <.plt>

0000000000400e50 <exit@plt>:
  400e50:	ff 25 aa 42 20 00    	jmpq   *0x2042aa(%rip)        # 605100 <exit@GLIBC_2.2.5>
  400e56:	68 1d 00 00 00       	pushq  $0x1d
  400e5b:	e9 10 fe ff ff       	jmpq   400c70 <.plt>

0000000000400e60 <connect@plt>:
  400e60:	ff 25 a2 42 20 00    	jmpq   *0x2042a2(%rip)        # 605108 <connect@GLIBC_2.2.5>
  400e66:	68 1e 00 00 00       	pushq  $0x1e
  400e6b:	e9 00 fe ff ff       	jmpq   400c70 <.plt>

0000000000400e70 <__fprintf_chk@plt>:
  400e70:	ff 25 9a 42 20 00    	jmpq   *0x20429a(%rip)        # 605110 <__fprintf_chk@GLIBC_2.3.4>
  400e76:	68 1f 00 00 00       	pushq  $0x1f
  400e7b:	e9 f0 fd ff ff       	jmpq   400c70 <.plt>

0000000000400e80 <__sprintf_chk@plt>:
  400e80:	ff 25 92 42 20 00    	jmpq   *0x204292(%rip)        # 605118 <__sprintf_chk@GLIBC_2.3.4>
  400e86:	68 20 00 00 00       	pushq  $0x20
  400e8b:	e9 e0 fd ff ff       	jmpq   400c70 <.plt>

0000000000400e90 <socket@plt>:
  400e90:	ff 25 8a 42 20 00    	jmpq   *0x20428a(%rip)        # 605120 <socket@GLIBC_2.2.5>
  400e96:	68 21 00 00 00       	pushq  $0x21
  400e9b:	e9 d0 fd ff ff       	jmpq   400c70 <.plt>

Disassembly of section .plt.got:

0000000000400ea0 <__gmon_start__@plt>:
  400ea0:	ff 25 52 41 20 00    	jmpq   *0x204152(%rip)        # 604ff8 <__gmon_start__>
  400ea6:	66 90                	xchg   %ax,%ax

Disassembly of section .text:

0000000000400eb0 <_start>:
  400eb0:	31 ed                	xor    %ebp,%ebp
  400eb2:	49 89 d1             	mov    %rdx,%r9
  400eb5:	5e                   	pop    %rsi
  400eb6:	48 89 e2             	mov    %rsp,%rdx
  400eb9:	48 83 e4 f0          	and    $0xfffffffffffffff0,%rsp
  400ebd:	50                   	push   %rax
  400ebe:	54                   	push   %rsp
  400ebf:	49 c7 c0 a0 2f 40 00 	mov    $0x402fa0,%r8
  400ec6:	48 c7 c1 30 2f 40 00 	mov    $0x402f30,%rcx
  400ecd:	48 c7 c7 b5 11 40 00 	mov    $0x4011b5,%rdi
  400ed4:	e8 77 fe ff ff       	callq  400d50 <__libc_start_main@plt>
  400ed9:	f4                   	hlt    
  400eda:	66 0f 1f 44 00 00    	nopw   0x0(%rax,%rax,1)

0000000000400ee0 <deregister_tm_clones>:
  400ee0:	b8 b7 54 60 00       	mov    $0x6054b7,%eax
  400ee5:	55                   	push   %rbp
  400ee6:	48 2d b0 54 60 00    	sub    $0x6054b0,%rax
  400eec:	48 83 f8 0e          	cmp    $0xe,%rax
  400ef0:	48 89 e5             	mov    %rsp,%rbp
  400ef3:	76 1b                	jbe    400f10 <deregister_tm_clones+0x30>
  400ef5:	b8 00 00 00 00       	mov    $0x0,%eax
  400efa:	48 85 c0             	test   %rax,%rax
  400efd:	74 11                	je     400f10 <deregister_tm_clones+0x30>
  400eff:	5d                   	pop    %rbp
  400f00:	bf b0 54 60 00       	mov    $0x6054b0,%edi
  400f05:	ff e0                	jmpq   *%rax
  400f07:	66 0f 1f 84 00 00 00 	nopw   0x0(%rax,%rax,1)
  400f0e:	00 00 
  400f10:	5d                   	pop    %rbp
  400f11:	c3                   	retq   
  400f12:	0f 1f 40 00          	nopl   0x0(%rax)
  400f16:	66 2e 0f 1f 84 00 00 	nopw   %cs:0x0(%rax,%rax,1)
  400f1d:	00 00 00 

0000000000400f20 <register_tm_clones>:
  400f20:	be b0 54 60 00       	mov    $0x6054b0,%esi
  400f25:	55                   	push   %rbp
  400f26:	48 81 ee b0 54 60 00 	sub    $0x6054b0,%rsi
  400f2d:	48 c1 fe 03          	sar    $0x3,%rsi
  400f31:	48 89 e5             	mov    %rsp,%rbp
  400f34:	48 89 f0             	mov    %rsi,%rax
  400f37:	48 c1 e8 3f          	shr    $0x3f,%rax
  400f3b:	48 01 c6             	add    %rax,%rsi
  400f3e:	48 d1 fe             	sar    %rsi
  400f41:	74 15                	je     400f58 <register_tm_clones+0x38>
  400f43:	b8 00 00 00 00       	mov    $0x0,%eax
  400f48:	48 85 c0             	test   %rax,%rax
  400f4b:	74 0b                	je     400f58 <register_tm_clones+0x38>
  400f4d:	5d                   	pop    %rbp
  400f4e:	bf b0 54 60 00       	mov    $0x6054b0,%edi
  400f53:	ff e0                	jmpq   *%rax
  400f55:	0f 1f 00             	nopl   (%rax)
  400f58:	5d                   	pop    %rbp
  400f59:	c3                   	retq   
  400f5a:	66 0f 1f 44 00 00    	nopw   0x0(%rax,%rax,1)

0000000000400f60 <__do_global_dtors_aux>:
  400f60:	80 3d 81 45 20 00 00 	cmpb   $0x0,0x204581(%rip)        # 6054e8 <completed.7585>
  400f67:	75 11                	jne    400f7a <__do_global_dtors_aux+0x1a>
  400f69:	55                   	push   %rbp
  400f6a:	48 89 e5             	mov    %rsp,%rbp
  400f6d:	e8 6e ff ff ff       	callq  400ee0 <deregister_tm_clones>
  400f72:	5d                   	pop    %rbp
  400f73:	c6 05 6e 45 20 00 01 	movb   $0x1,0x20456e(%rip)        # 6054e8 <completed.7585>
  400f7a:	f3 c3                	repz retq 
  400f7c:	0f 1f 40 00          	nopl   0x0(%rax)

0000000000400f80 <frame_dummy>:
  400f80:	bf 20 4e 60 00       	mov    $0x604e20,%edi
  400f85:	48 83 3f 00          	cmpq   $0x0,(%rdi)
  400f89:	75 05                	jne    400f90 <frame_dummy+0x10>
  400f8b:	eb 93                	jmp    400f20 <register_tm_clones>
  400f8d:	0f 1f 00             	nopl   (%rax)
  400f90:	b8 00 00 00 00       	mov    $0x0,%eax
  400f95:	48 85 c0             	test   %rax,%rax
  400f98:	74 f1                	je     400f8b <frame_dummy+0xb>
  400f9a:	55                   	push   %rbp
  400f9b:	48 89 e5             	mov    %rsp,%rbp
  400f9e:	ff d0                	callq  *%rax
  400fa0:	5d                   	pop    %rbp
  400fa1:	e9 7a ff ff ff       	jmpq   400f20 <register_tm_clones>

0000000000400fa6 <usage>:
  400fa6:	48 83 ec 08          	sub    $0x8,%rsp
  400faa:	48 89 fa             	mov    %rdi,%rdx
  400fad:	83 3d 74 45 20 00 00 	cmpl   $0x0,0x204574(%rip)        # 605528 <is_checker>
  400fb4:	74 3e                	je     400ff4 <usage+0x4e>
  400fb6:	be b8 2f 40 00       	mov    $0x402fb8,%esi
  400fbb:	bf 01 00 00 00       	mov    $0x1,%edi
  400fc0:	b8 00 00 00 00       	mov    $0x0,%eax
  400fc5:	e8 36 fe ff ff       	callq  400e00 <__printf_chk@plt>
  400fca:	bf f0 2f 40 00       	mov    $0x402ff0,%edi
  400fcf:	e8 fc fc ff ff       	callq  400cd0 <puts@plt>
  400fd4:	bf 68 31 40 00       	mov    $0x403168,%edi
  400fd9:	e8 f2 fc ff ff       	callq  400cd0 <puts@plt>
  400fde:	bf 18 30 40 00       	mov    $0x403018,%edi
  400fe3:	e8 e8 fc ff ff       	callq  400cd0 <puts@plt>
  400fe8:	bf 82 31 40 00       	mov    $0x403182,%edi
  400fed:	e8 de fc ff ff       	callq  400cd0 <puts@plt>
  400ff2:	eb 32                	jmp    401026 <usage+0x80>
  400ff4:	be 9e 31 40 00       	mov    $0x40319e,%esi
  400ff9:	bf 01 00 00 00       	mov    $0x1,%edi
  400ffe:	b8 00 00 00 00       	mov    $0x0,%eax
  401003:	e8 f8 fd ff ff       	callq  400e00 <__printf_chk@plt>
  401008:	bf 40 30 40 00       	mov    $0x403040,%edi
  40100d:	e8 be fc ff ff       	callq  400cd0 <puts@plt>
  401012:	bf 68 30 40 00       	mov    $0x403068,%edi
  401017:	e8 b4 fc ff ff       	callq  400cd0 <puts@plt>
  40101c:	bf bc 31 40 00       	mov    $0x4031bc,%edi
  401021:	e8 aa fc ff ff       	callq  400cd0 <puts@plt>
  401026:	bf 00 00 00 00       	mov    $0x0,%edi
  40102b:	e8 20 fe ff ff       	callq  400e50 <exit@plt>

0000000000401030 <initialize_target>:
  401030:	55                   	push   %rbp
  401031:	53                   	push   %rbx
  401032:	48 81 ec 18 21 00 00 	sub    $0x2118,%rsp
  401039:	89 f5                	mov    %esi,%ebp
  40103b:	64 48 8b 04 25 28 00 	mov    %fs:0x28,%rax
  401042:	00 00 
  401044:	48 89 84 24 08 21 00 	mov    %rax,0x2108(%rsp)
  40104b:	00 
  40104c:	31 c0                	xor    %eax,%eax
  40104e:	89 3d c4 44 20 00    	mov    %edi,0x2044c4(%rip)        # 605518 <check_level>
  401054:	8b 3d 0e 41 20 00    	mov    0x20410e(%rip),%edi        # 605168 <target_id>
  40105a:	e8 a5 1e 00 00       	callq  402f04 <gencookie>
  40105f:	89 05 bf 44 20 00    	mov    %eax,0x2044bf(%rip)        # 605524 <cookie>
  401065:	89 c7                	mov    %eax,%edi
  401067:	e8 98 1e 00 00       	callq  402f04 <gencookie>
  40106c:	89 05 ae 44 20 00    	mov    %eax,0x2044ae(%rip)        # 605520 <authkey>
  401072:	8b 05 f0 40 20 00    	mov    0x2040f0(%rip),%eax        # 605168 <target_id>
  401078:	8d 78 01             	lea    0x1(%rax),%edi
  40107b:	e8 20 fc ff ff       	callq  400ca0 <srandom@plt>
  401080:	e8 3b fd ff ff       	callq  400dc0 <random@plt>
  401085:	89 c7                	mov    %eax,%edi
  401087:	e8 03 03 00 00       	callq  40138f <scramble>
  40108c:	89 c3                	mov    %eax,%ebx
  40108e:	85 ed                	test   %ebp,%ebp
  401090:	74 18                	je     4010aa <initialize_target+0x7a>
  401092:	bf 00 00 00 00       	mov    $0x0,%edi
  401097:	e8 14 fd ff ff       	callq  400db0 <time@plt>
  40109c:	89 c7                	mov    %eax,%edi
  40109e:	e8 fd fb ff ff       	callq  400ca0 <srandom@plt>
  4010a3:	e8 18 fd ff ff       	callq  400dc0 <random@plt>
  4010a8:	eb 05                	jmp    4010af <initialize_target+0x7f>
  4010aa:	b8 00 00 00 00       	mov    $0x0,%eax
  4010af:	01 c3                	add    %eax,%ebx
  4010b1:	0f b7 db             	movzwl %bx,%ebx
  4010b4:	8d 04 dd 00 01 00 00 	lea    0x100(,%rbx,8),%eax
  4010bb:	89 c0                	mov    %eax,%eax
  4010bd:	48 89 05 dc 43 20 00 	mov    %rax,0x2043dc(%rip)        # 6054a0 <buf_offset>
  4010c4:	c6 05 7d 50 20 00 72 	movb   $0x72,0x20507d(%rip)        # 606148 <target_prefix>
  4010cb:	83 3d d6 43 20 00 00 	cmpl   $0x0,0x2043d6(%rip)        # 6054a8 <notify>
  4010d2:	0f 84 bb 00 00 00    	je     401193 <initialize_target+0x163>
  4010d8:	83 3d 49 44 20 00 00 	cmpl   $0x0,0x204449(%rip)        # 605528 <is_checker>
  4010df:	0f 85 ae 00 00 00    	jne    401193 <initialize_target+0x163>
  4010e5:	be 00 01 00 00       	mov    $0x100,%esi
  4010ea:	48 89 e7             	mov    %rsp,%rdi
  4010ed:	e8 4e fd ff ff       	callq  400e40 <gethostname@plt>
  4010f2:	85 c0                	test   %eax,%eax
  4010f4:	74 25                	je     40111b <initialize_target+0xeb>
  4010f6:	bf 98 30 40 00       	mov    $0x403098,%edi
  4010fb:	e8 d0 fb ff ff       	callq  400cd0 <puts@plt>
  401100:	bf 08 00 00 00       	mov    $0x8,%edi
  401105:	e8 46 fd ff ff       	callq  400e50 <exit@plt>
  40110a:	48 89 e6             	mov    %rsp,%rsi
  40110d:	e8 6e fb ff ff       	callq  400c80 <strcasecmp@plt>
  401112:	85 c0                	test   %eax,%eax
  401114:	74 21                	je     401137 <initialize_target+0x107>
  401116:	83 c3 01             	add    $0x1,%ebx
  401119:	eb 05                	jmp    401120 <initialize_target+0xf0>
  40111b:	bb 00 00 00 00       	mov    $0x0,%ebx
  401120:	48 63 c3             	movslq %ebx,%rax
  401123:	48 8b 3c c5 80 51 60 	mov    0x605180(,%rax,8),%rdi
  40112a:	00 
  40112b:	48 85 ff             	test   %rdi,%rdi
  40112e:	75 da                	jne    40110a <initialize_target+0xda>
  401130:	b8 00 00 00 00       	mov    $0x0,%eax
  401135:	eb 05                	jmp    40113c <initialize_target+0x10c>
  401137:	b8 01 00 00 00       	mov    $0x1,%eax
  40113c:	85 c0                	test   %eax,%eax
  40113e:	75 1c                	jne    40115c <initialize_target+0x12c>
  401140:	48 89 e2             	mov    %rsp,%rdx
  401143:	be d0 30 40 00       	mov    $0x4030d0,%esi
  401148:	bf 01 00 00 00       	mov    $0x1,%edi
  40114d:	e8 ae fc ff ff       	callq  400e00 <__printf_chk@plt>
  401152:	bf 08 00 00 00       	mov    $0x8,%edi
  401157:	e8 f4 fc ff ff       	callq  400e50 <exit@plt>
  40115c:	48 8d bc 24 00 01 00 	lea    0x100(%rsp),%rdi
  401163:	00 
  401164:	e8 05 1b 00 00       	callq  402c6e <init_driver>
  401169:	85 c0                	test   %eax,%eax
  40116b:	79 26                	jns    401193 <initialize_target+0x163>
  40116d:	48 8d 94 24 00 01 00 	lea    0x100(%rsp),%rdx
  401174:	00 
  401175:	be 10 31 40 00       	mov    $0x403110,%esi
  40117a:	bf 01 00 00 00       	mov    $0x1,%edi
  40117f:	b8 00 00 00 00       	mov    $0x0,%eax
  401184:	e8 77 fc ff ff       	callq  400e00 <__printf_chk@plt>
  401189:	bf 08 00 00 00       	mov    $0x8,%edi
  40118e:	e8 bd fc ff ff       	callq  400e50 <exit@plt>
  401193:	48 8b 84 24 08 21 00 	mov    0x2108(%rsp),%rax
  40119a:	00 
  40119b:	64 48 33 04 25 28 00 	xor    %fs:0x28,%rax
  4011a2:	00 00 
  4011a4:	74 05                	je     4011ab <initialize_target+0x17b>
  4011a6:	e8 45 fb ff ff       	callq  400cf0 <__stack_chk_fail@plt>
  4011ab:	48 81 c4 18 21 00 00 	add    $0x2118,%rsp
  4011b2:	5b                   	pop    %rbx
  4011b3:	5d                   	pop    %rbp
  4011b4:	c3                   	retq   

00000000004011b5 <main>:
  4011b5:	41 56                	push   %r14
  4011b7:	41 55                	push   %r13
  4011b9:	41 54                	push   %r12
  4011bb:	55                   	push   %rbp
  4011bc:	53                   	push   %rbx
  4011bd:	41 89 fc             	mov    %edi,%r12d
  4011c0:	48 89 f3             	mov    %rsi,%rbx
  4011c3:	be a9 1f 40 00       	mov    $0x401fa9,%esi
  4011c8:	bf 0b 00 00 00       	mov    $0xb,%edi
  4011cd:	e8 8e fb ff ff       	callq  400d60 <signal@plt>
  4011d2:	be 5b 1f 40 00       	mov    $0x401f5b,%esi
  4011d7:	bf 07 00 00 00       	mov    $0x7,%edi
  4011dc:	e8 7f fb ff ff       	callq  400d60 <signal@plt>
  4011e1:	be f7 1f 40 00       	mov    $0x401ff7,%esi
  4011e6:	bf 04 00 00 00       	mov    $0x4,%edi
  4011eb:	e8 70 fb ff ff       	callq  400d60 <signal@plt>
  4011f0:	83 3d 31 43 20 00 00 	cmpl   $0x0,0x204331(%rip)        # 605528 <is_checker>
  4011f7:	74 20                	je     401219 <main+0x64>
  4011f9:	be 45 20 40 00       	mov    $0x402045,%esi
  4011fe:	bf 0e 00 00 00       	mov    $0xe,%edi
  401203:	e8 58 fb ff ff       	callq  400d60 <signal@plt>
  401208:	bf 05 00 00 00       	mov    $0x5,%edi
  40120d:	e8 0e fb ff ff       	callq  400d20 <alarm@plt>
  401212:	bd da 31 40 00       	mov    $0x4031da,%ebp
  401217:	eb 05                	jmp    40121e <main+0x69>
  401219:	bd d5 31 40 00       	mov    $0x4031d5,%ebp
  40121e:	48 8b 05 9b 42 20 00 	mov    0x20429b(%rip),%rax        # 6054c0 <stdin@@GLIBC_2.2.5>
  401225:	48 89 05 e4 42 20 00 	mov    %rax,0x2042e4(%rip)        # 605510 <infile>
  40122c:	41 bd 00 00 00 00    	mov    $0x0,%r13d
  401232:	41 be 00 00 00 00    	mov    $0x0,%r14d
  401238:	e9 c6 00 00 00       	jmpq   401303 <main+0x14e>
  40123d:	83 e8 61             	sub    $0x61,%eax
  401240:	3c 10                	cmp    $0x10,%al
  401242:	0f 87 9c 00 00 00    	ja     4012e4 <main+0x12f>
  401248:	0f b6 c0             	movzbl %al,%eax
  40124b:	ff 24 c5 20 32 40 00 	jmpq   *0x403220(,%rax,8)
  401252:	48 8b 3b             	mov    (%rbx),%rdi
  401255:	e8 4c fd ff ff       	callq  400fa6 <usage>
  40125a:	be d7 33 40 00       	mov    $0x4033d7,%esi
  40125f:	48 8b 3d 62 42 20 00 	mov    0x204262(%rip),%rdi        # 6054c8 <optarg@@GLIBC_2.2.5>
  401266:	e8 a5 fb ff ff       	callq  400e10 <fopen@plt>
  40126b:	48 89 05 9e 42 20 00 	mov    %rax,0x20429e(%rip)        # 605510 <infile>
  401272:	48 85 c0             	test   %rax,%rax
  401275:	0f 85 88 00 00 00    	jne    401303 <main+0x14e>
  40127b:	48 8b 0d 46 42 20 00 	mov    0x204246(%rip),%rcx        # 6054c8 <optarg@@GLIBC_2.2.5>
  401282:	ba e2 31 40 00       	mov    $0x4031e2,%edx
  401287:	be 01 00 00 00       	mov    $0x1,%esi
  40128c:	48 8b 3d 4d 42 20 00 	mov    0x20424d(%rip),%rdi        # 6054e0 <stderr@@GLIBC_2.2.5>
  401293:	e8 d8 fb ff ff       	callq  400e70 <__fprintf_chk@plt>
  401298:	b8 01 00 00 00       	mov    $0x1,%eax
  40129d:	e9 e4 00 00 00       	jmpq   401386 <main+0x1d1>
  4012a2:	ba 10 00 00 00       	mov    $0x10,%edx
  4012a7:	be 00 00 00 00       	mov    $0x0,%esi
  4012ac:	48 8b 3d 15 42 20 00 	mov    0x204215(%rip),%rdi        # 6054c8 <optarg@@GLIBC_2.2.5>
  4012b3:	e8 78 fb ff ff       	callq  400e30 <strtoul@plt>
  4012b8:	41 89 c6             	mov    %eax,%r14d
  4012bb:	eb 46                	jmp    401303 <main+0x14e>
  4012bd:	ba 0a 00 00 00       	mov    $0xa,%edx
  4012c2:	be 00 00 00 00       	mov    $0x0,%esi
  4012c7:	48 8b 3d fa 41 20 00 	mov    0x2041fa(%rip),%rdi        # 6054c8 <optarg@@GLIBC_2.2.5>
  4012ce:	e8 bd fa ff ff       	callq  400d90 <strtol@plt>
  4012d3:	41 89 c5             	mov    %eax,%r13d
  4012d6:	eb 2b                	jmp    401303 <main+0x14e>
  4012d8:	c7 05 c6 41 20 00 00 	movl   $0x0,0x2041c6(%rip)        # 6054a8 <notify>
  4012df:	00 00 00 
  4012e2:	eb 1f                	jmp    401303 <main+0x14e>
  4012e4:	0f be d2             	movsbl %dl,%edx
  4012e7:	be ff 31 40 00       	mov    $0x4031ff,%esi
  4012ec:	bf 01 00 00 00       	mov    $0x1,%edi
  4012f1:	b8 00 00 00 00       	mov    $0x0,%eax
  4012f6:	e8 05 fb ff ff       	callq  400e00 <__printf_chk@plt>
  4012fb:	48 8b 3b             	mov    (%rbx),%rdi
  4012fe:	e8 a3 fc ff ff       	callq  400fa6 <usage>
  401303:	48 89 ea             	mov    %rbp,%rdx
  401306:	48 89 de             	mov    %rbx,%rsi
  401309:	44 89 e7             	mov    %r12d,%edi
  40130c:	e8 0f fb ff ff       	callq  400e20 <getopt@plt>
  401311:	89 c2                	mov    %eax,%edx
  401313:	3c ff                	cmp    $0xff,%al
  401315:	0f 85 22 ff ff ff    	jne    40123d <main+0x88>
  40131b:	be 01 00 00 00       	mov    $0x1,%esi
  401320:	44 89 ef             	mov    %r13d,%edi
  401323:	e8 08 fd ff ff       	callq  401030 <initialize_target>
  401328:	83 3d f9 41 20 00 00 	cmpl   $0x0,0x2041f9(%rip)        # 605528 <is_checker>
  40132f:	74 2a                	je     40135b <main+0x1a6>
  401331:	44 3b 35 e8 41 20 00 	cmp    0x2041e8(%rip),%r14d        # 605520 <authkey>
  401338:	74 21                	je     40135b <main+0x1a6>
  40133a:	44 89 f2             	mov    %r14d,%edx
  40133d:	be 38 31 40 00       	mov    $0x403138,%esi
  401342:	bf 01 00 00 00       	mov    $0x1,%edi
  401347:	b8 00 00 00 00       	mov    $0x0,%eax
  40134c:	e8 af fa ff ff       	callq  400e00 <__printf_chk@plt>
  401351:	b8 00 00 00 00       	mov    $0x0,%eax
  401356:	e8 82 08 00 00       	callq  401bdd <check_fail>
  40135b:	8b 15 c3 41 20 00    	mov    0x2041c3(%rip),%edx        # 605524 <cookie>
  401361:	be 12 32 40 00       	mov    $0x403212,%esi
  401366:	bf 01 00 00 00       	mov    $0x1,%edi
  40136b:	b8 00 00 00 00       	mov    $0x0,%eax
  401370:	e8 8b fa ff ff       	callq  400e00 <__printf_chk@plt>
  401375:	48 8b 3d 24 41 20 00 	mov    0x204124(%rip),%rdi        # 6054a0 <buf_offset>
  40137c:	e8 17 0d 00 00       	callq  402098 <launch>
  401381:	b8 00 00 00 00       	mov    $0x0,%eax
  401386:	5b                   	pop    %rbx
  401387:	5d                   	pop    %rbp
  401388:	41 5c                	pop    %r12
  40138a:	41 5d                	pop    %r13
  40138c:	41 5e                	pop    %r14
  40138e:	c3                   	retq   

000000000040138f <scramble>:
  40138f:	48 83 ec 38          	sub    $0x38,%rsp
  401393:	64 48 8b 04 25 28 00 	mov    %fs:0x28,%rax
  40139a:	00 00 
  40139c:	48 89 44 24 28       	mov    %rax,0x28(%rsp)
  4013a1:	31 c0                	xor    %eax,%eax
  4013a3:	eb 10                	jmp    4013b5 <scramble+0x26>
  4013a5:	69 d0 09 b7 00 00    	imul   $0xb709,%eax,%edx
  4013ab:	01 fa                	add    %edi,%edx
  4013ad:	89 c1                	mov    %eax,%ecx
  4013af:	89 14 8c             	mov    %edx,(%rsp,%rcx,4)
  4013b2:	83 c0 01             	add    $0x1,%eax
  4013b5:	83 f8 09             	cmp    $0x9,%eax
  4013b8:	76 eb                	jbe    4013a5 <scramble+0x16>
  4013ba:	8b 44 24 20          	mov    0x20(%rsp),%eax
  4013be:	69 c0 08 36 00 00    	imul   $0x3608,%eax,%eax
  4013c4:	89 44 24 20          	mov    %eax,0x20(%rsp)
  4013c8:	8b 44 24 1c          	mov    0x1c(%rsp),%eax
  4013cc:	69 c0 8c 5d 00 00    	imul   $0x5d8c,%eax,%eax
  4013d2:	89 44 24 1c          	mov    %eax,0x1c(%rsp)
  4013d6:	8b 44 24 14          	mov    0x14(%rsp),%eax
  4013da:	69 c0 b6 68 00 00    	imul   $0x68b6,%eax,%eax
  4013e0:	89 44 24 14          	mov    %eax,0x14(%rsp)
  4013e4:	8b 44 24 20          	mov    0x20(%rsp),%eax
  4013e8:	69 c0 11 f5 00 00    	imul   $0xf511,%eax,%eax
  4013ee:	89 44 24 20          	mov    %eax,0x20(%rsp)
  4013f2:	8b 44 24 14          	mov    0x14(%rsp),%eax
  4013f6:	69 c0 64 0a 00 00    	imul   $0xa64,%eax,%eax
  4013fc:	89 44 24 14          	mov    %eax,0x14(%rsp)
  401400:	8b 44 24 20          	mov    0x20(%rsp),%eax
  401404:	69 c0 c9 5d 00 00    	imul   $0x5dc9,%eax,%eax
  40140a:	89 44 24 20          	mov    %eax,0x20(%rsp)
  40140e:	8b 44 24 14          	mov    0x14(%rsp),%eax
  401412:	69 c0 fd 0c 00 00    	imul   $0xcfd,%eax,%eax
  401418:	89 44 24 14          	mov    %eax,0x14(%rsp)
  40141c:	8b 04 24             	mov    (%rsp),%eax
  40141f:	69 c0 00 73 00 00    	imul   $0x7300,%eax,%eax
  401425:	89 04 24             	mov    %eax,(%rsp)
  401428:	8b 44 24 20          	mov    0x20(%rsp),%eax
  40142c:	69 c0 0b 6a 00 00    	imul   $0x6a0b,%eax,%eax
  401432:	89 44 24 20          	mov    %eax,0x20(%rsp)
  401436:	8b 44 24 1c          	mov    0x1c(%rsp),%eax
  40143a:	69 c0 63 d6 00 00    	imul   $0xd663,%eax,%eax
  401440:	89 44 24 1c          	mov    %eax,0x1c(%rsp)
  401444:	8b 44 24 14          	mov    0x14(%rsp),%eax
  401448:	69 c0 dd 10 00 00    	imul   $0x10dd,%eax,%eax
  40144e:	89 44 24 14          	mov    %eax,0x14(%rsp)
  401452:	8b 44 24 20          	mov    0x20(%rsp),%eax
  401456:	69 c0 0a a4 00 00    	imul   $0xa40a,%eax,%eax
  40145c:	89 44 24 20          	mov    %eax,0x20(%rsp)
  401460:	8b 44 24 04          	mov    0x4(%rsp),%eax
  401464:	69 c0 b2 46 00 00    	imul   $0x46b2,%eax,%eax
  40146a:	89 44 24 04          	mov    %eax,0x4(%rsp)
  40146e:	8b 44 24 20          	mov    0x20(%rsp),%eax
  401472:	69 c0 47 74 00 00    	imul   $0x7447,%eax,%eax
  401478:	89 44 24 20          	mov    %eax,0x20(%rsp)
  40147c:	8b 44 24 14          	mov    0x14(%rsp),%eax
  401480:	69 c0 55 7f 00 00    	imul   $0x7f55,%eax,%eax
  401486:	89 44 24 14          	mov    %eax,0x14(%rsp)
  40148a:	8b 44 24 24          	mov    0x24(%rsp),%eax
  40148e:	69 c0 b4 9c 00 00    	imul   $0x9cb4,%eax,%eax
  401494:	89 44 24 24          	mov    %eax,0x24(%rsp)
  401498:	8b 44 24 08          	mov    0x8(%rsp),%eax
  40149c:	69 c0 03 07 00 00    	imul   $0x703,%eax,%eax
  4014a2:	89 44 24 08          	mov    %eax,0x8(%rsp)
  4014a6:	8b 44 24 14          	mov    0x14(%rsp),%eax
  4014aa:	69 c0 3a af 00 00    	imul   $0xaf3a,%eax,%eax
  4014b0:	89 44 24 14          	mov    %eax,0x14(%rsp)
  4014b4:	8b 44 24 10          	mov    0x10(%rsp),%eax
  4014b8:	69 c0 b1 c9 00 00    	imul   $0xc9b1,%eax,%eax
  4014be:	89 44 24 10          	mov    %eax,0x10(%rsp)
  4014c2:	8b 44 24 04          	mov    0x4(%rsp),%eax
  4014c6:	69 c0 33 34 00 00    	imul   $0x3433,%eax,%eax
  4014cc:	89 44 24 04          	mov    %eax,0x4(%rsp)
  4014d0:	8b 44 24 1c          	mov    0x1c(%rsp),%eax
  4014d4:	69 c0 b5 a2 00 00    	imul   $0xa2b5,%eax,%eax
  4014da:	89 44 24 1c          	mov    %eax,0x1c(%rsp)
  4014de:	8b 44 24 20          	mov    0x20(%rsp),%eax
  4014e2:	69 c0 07 a6 00 00    	imul   $0xa607,%eax,%eax
  4014e8:	89 44 24 20          	mov    %eax,0x20(%rsp)
  4014ec:	8b 44 24 24          	mov    0x24(%rsp),%eax
  4014f0:	69 c0 5c b4 00 00    	imul   $0xb45c,%eax,%eax
  4014f6:	89 44 24 24          	mov    %eax,0x24(%rsp)
  4014fa:	8b 44 24 14          	mov    0x14(%rsp),%eax
  4014fe:	69 c0 9e cf 00 00    	imul   $0xcf9e,%eax,%eax
  401504:	89 44 24 14          	mov    %eax,0x14(%rsp)
  401508:	8b 44 24 0c          	mov    0xc(%rsp),%eax
  40150c:	69 c0 b9 6c 00 00    	imul   $0x6cb9,%eax,%eax
  401512:	89 44 24 0c          	mov    %eax,0xc(%rsp)
  401516:	8b 44 24 1c          	mov    0x1c(%rsp),%eax
  40151a:	69 c0 29 3c 00 00    	imul   $0x3c29,%eax,%eax
  401520:	89 44 24 1c          	mov    %eax,0x1c(%rsp)
  401524:	8b 44 24 24          	mov    0x24(%rsp),%eax
  401528:	69 c0 ff 18 00 00    	imul   $0x18ff,%eax,%eax
  40152e:	89 44 24 24          	mov    %eax,0x24(%rsp)
  401532:	8b 44 24 1c          	mov    0x1c(%rsp),%eax
  401536:	69 c0 bd 04 00 00    	imul   $0x4bd,%eax,%eax
  40153c:	89 44 24 1c          	mov    %eax,0x1c(%rsp)
  401540:	8b 44 24 04          	mov    0x4(%rsp),%eax
  401544:	69 c0 76 fb 00 00    	imul   $0xfb76,%eax,%eax
  40154a:	89 44 24 04          	mov    %eax,0x4(%rsp)
  40154e:	8b 44 24 20          	mov    0x20(%rsp),%eax
  401552:	69 c0 5c 45 00 00    	imul   $0x455c,%eax,%eax
  401558:	89 44 24 20          	mov    %eax,0x20(%rsp)
  40155c:	8b 44 24 10          	mov    0x10(%rsp),%eax
  401560:	69 c0 c0 10 00 00    	imul   $0x10c0,%eax,%eax
  401566:	89 44 24 10          	mov    %eax,0x10(%rsp)
  40156a:	8b 44 24 04          	mov    0x4(%rsp),%eax
  40156e:	69 c0 29 30 00 00    	imul   $0x3029,%eax,%eax
  401574:	89 44 24 04          	mov    %eax,0x4(%rsp)
  401578:	8b 44 24 10          	mov    0x10(%rsp),%eax
  40157c:	69 c0 50 dc 00 00    	imul   $0xdc50,%eax,%eax
  401582:	89 44 24 10          	mov    %eax,0x10(%rsp)
  401586:	8b 44 24 1c          	mov    0x1c(%rsp),%eax
  40158a:	69 c0 7d 87 00 00    	imul   $0x877d,%eax,%eax
  401590:	89 44 24 1c          	mov    %eax,0x1c(%rsp)
  401594:	8b 44 24 08          	mov    0x8(%rsp),%eax
  401598:	69 c0 b0 83 00 00    	imul   $0x83b0,%eax,%eax
  40159e:	89 44 24 08          	mov    %eax,0x8(%rsp)
  4015a2:	8b 44 24 04          	mov    0x4(%rsp),%eax
  4015a6:	69 c0 17 7a 00 00    	imul   $0x7a17,%eax,%eax
  4015ac:	89 44 24 04          	mov    %eax,0x4(%rsp)
  4015b0:	8b 04 24             	mov    (%rsp),%eax
  4015b3:	69 c0 ad 4d 00 00    	imul   $0x4dad,%eax,%eax
  4015b9:	89 04 24             	mov    %eax,(%rsp)
  4015bc:	8b 44 24 0c          	mov    0xc(%rsp),%eax
  4015c0:	69 c0 17 d6 00 00    	imul   $0xd617,%eax,%eax
  4015c6:	89 44 24 0c          	mov    %eax,0xc(%rsp)
  4015ca:	8b 44 24 24          	mov    0x24(%rsp),%eax
  4015ce:	69 c0 26 39 00 00    	imul   $0x3926,%eax,%eax
  4015d4:	89 44 24 24          	mov    %eax,0x24(%rsp)
  4015d8:	8b 44 24 04          	mov    0x4(%rsp),%eax
  4015dc:	69 c0 71 20 00 00    	imul   $0x2071,%eax,%eax
  4015e2:	89 44 24 04          	mov    %eax,0x4(%rsp)
  4015e6:	8b 44 24 18          	mov    0x18(%rsp),%eax
  4015ea:	69 c0 b7 4b 00 00    	imul   $0x4bb7,%eax,%eax
  4015f0:	89 44 24 18          	mov    %eax,0x18(%rsp)
  4015f4:	8b 44 24 18          	mov    0x18(%rsp),%eax
  4015f8:	69 c0 76 23 00 00    	imul   $0x2376,%eax,%eax
  4015fe:	89 44 24 18          	mov    %eax,0x18(%rsp)
  401602:	8b 44 24 18          	mov    0x18(%rsp),%eax
  401606:	69 c0 cd 3c 00 00    	imul   $0x3ccd,%eax,%eax
  40160c:	89 44 24 18          	mov    %eax,0x18(%rsp)
  401610:	8b 44 24 1c          	mov    0x1c(%rsp),%eax
  401614:	69 c0 67 c4 00 00    	imul   $0xc467,%eax,%eax
  40161a:	89 44 24 1c          	mov    %eax,0x1c(%rsp)
  40161e:	8b 44 24 04          	mov    0x4(%rsp),%eax
  401622:	69 c0 39 a1 00 00    	imul   $0xa139,%eax,%eax
  401628:	89 44 24 04          	mov    %eax,0x4(%rsp)
  40162c:	8b 44 24 14          	mov    0x14(%rsp),%eax
  401630:	69 c0 0f b3 00 00    	imul   $0xb30f,%eax,%eax
  401636:	89 44 24 14          	mov    %eax,0x14(%rsp)
  40163a:	8b 44 24 1c          	mov    0x1c(%rsp),%eax
  40163e:	69 c0 d3 eb 00 00    	imul   $0xebd3,%eax,%eax
  401644:	89 44 24 1c          	mov    %eax,0x1c(%rsp)
  401648:	8b 44 24 14          	mov    0x14(%rsp),%eax
  40164c:	69 c0 bc c9 00 00    	imul   $0xc9bc,%eax,%eax
  401652:	89 44 24 14          	mov    %eax,0x14(%rsp)
  401656:	8b 44 24 1c          	mov    0x1c(%rsp),%eax
  40165a:	69 c0 9d c2 00 00    	imul   $0xc29d,%eax,%eax
  401660:	89 44 24 1c          	mov    %eax,0x1c(%rsp)
  401664:	8b 44 24 0c          	mov    0xc(%rsp),%eax
  401668:	69 c0 25 6e 00 00    	imul   $0x6e25,%eax,%eax
  40166e:	89 44 24 0c          	mov    %eax,0xc(%rsp)
  401672:	8b 44 24 10          	mov    0x10(%rsp),%eax
  401676:	69 c0 ea 0c 00 00    	imul   $0xcea,%eax,%eax
  40167c:	89 44 24 10          	mov    %eax,0x10(%rsp)
  401680:	8b 44 24 24          	mov    0x24(%rsp),%eax
  401684:	69 c0 b2 6c 00 00    	imul   $0x6cb2,%eax,%eax
  40168a:	89 44 24 24          	mov    %eax,0x24(%rsp)
  40168e:	8b 44 24 0c          	mov    0xc(%rsp),%eax
  401692:	69 c0 5a 08 00 00    	imul   $0x85a,%eax,%eax
  401698:	89 44 24 0c          	mov    %eax,0xc(%rsp)
  40169c:	8b 44 24 18          	mov    0x18(%rsp),%eax
  4016a0:	69 c0 a1 5c 00 00    	imul   $0x5ca1,%eax,%eax
  4016a6:	89 44 24 18          	mov    %eax,0x18(%rsp)
  4016aa:	8b 44 24 10          	mov    0x10(%rsp),%eax
  4016ae:	69 c0 7e e8 00 00    	imul   $0xe87e,%eax,%eax
  4016b4:	89 44 24 10          	mov    %eax,0x10(%rsp)
  4016b8:	8b 44 24 24          	mov    0x24(%rsp),%eax
  4016bc:	69 c0 60 e7 00 00    	imul   $0xe760,%eax,%eax
  4016c2:	89 44 24 24          	mov    %eax,0x24(%rsp)
  4016c6:	8b 44 24 20          	mov    0x20(%rsp),%eax
  4016ca:	69 c0 ac d9 00 00    	imul   $0xd9ac,%eax,%eax
  4016d0:	89 44 24 20          	mov    %eax,0x20(%rsp)
  4016d4:	8b 44 24 1c          	mov    0x1c(%rsp),%eax
  4016d8:	69 c0 eb 98 00 00    	imul   $0x98eb,%eax,%eax
  4016de:	89 44 24 1c          	mov    %eax,0x1c(%rsp)
  4016e2:	8b 44 24 04          	mov    0x4(%rsp),%eax
  4016e6:	69 c0 0a 33 00 00    	imul   $0x330a,%eax,%eax
  4016ec:	89 44 24 04          	mov    %eax,0x4(%rsp)
  4016f0:	8b 44 24 0c          	mov    0xc(%rsp),%eax
  4016f4:	69 c0 bc 4e 00 00    	imul   $0x4ebc,%eax,%eax
  4016fa:	89 44 24 0c          	mov    %eax,0xc(%rsp)
  4016fe:	8b 44 24 10          	mov    0x10(%rsp),%eax
  401702:	69 c0 16 67 00 00    	imul   $0x6716,%eax,%eax
  401708:	89 44 24 10          	mov    %eax,0x10(%rsp)
  40170c:	8b 44 24 08          	mov    0x8(%rsp),%eax
  401710:	69 c0 3c 86 00 00    	imul   $0x863c,%eax,%eax
  401716:	89 44 24 08          	mov    %eax,0x8(%rsp)
  40171a:	8b 44 24 24          	mov    0x24(%rsp),%eax
  40171e:	69 c0 05 e5 00 00    	imul   $0xe505,%eax,%eax
  401724:	89 44 24 24          	mov    %eax,0x24(%rsp)
  401728:	8b 44 24 10          	mov    0x10(%rsp),%eax
  40172c:	69 c0 0d 1b 00 00    	imul   $0x1b0d,%eax,%eax
  401732:	89 44 24 10          	mov    %eax,0x10(%rsp)
  401736:	8b 44 24 08          	mov    0x8(%rsp),%eax
  40173a:	69 c0 32 a1 00 00    	imul   $0xa132,%eax,%eax
  401740:	89 44 24 08          	mov    %eax,0x8(%rsp)
  401744:	8b 44 24 20          	mov    0x20(%rsp),%eax
  401748:	69 c0 ef ed 00 00    	imul   $0xedef,%eax,%eax
  40174e:	89 44 24 20          	mov    %eax,0x20(%rsp)
  401752:	8b 44 24 0c          	mov    0xc(%rsp),%eax
  401756:	69 c0 6e 71 00 00    	imul   $0x716e,%eax,%eax
  40175c:	89 44 24 0c          	mov    %eax,0xc(%rsp)
  401760:	8b 44 24 04          	mov    0x4(%rsp),%eax
  401764:	69 c0 b4 08 00 00    	imul   $0x8b4,%eax,%eax
  40176a:	89 44 24 04          	mov    %eax,0x4(%rsp)
  40176e:	8b 44 24 04          	mov    0x4(%rsp),%eax
  401772:	69 c0 6a 9d 00 00    	imul   $0x9d6a,%eax,%eax
  401778:	89 44 24 04          	mov    %eax,0x4(%rsp)
  40177c:	8b 44 24 08          	mov    0x8(%rsp),%eax
  401780:	69 c0 49 bb 00 00    	imul   $0xbb49,%eax,%eax
  401786:	89 44 24 08          	mov    %eax,0x8(%rsp)
  40178a:	8b 44 24 1c          	mov    0x1c(%rsp),%eax
  40178e:	69 c0 67 e2 00 00    	imul   $0xe267,%eax,%eax
  401794:	89 44 24 1c          	mov    %eax,0x1c(%rsp)
  401798:	8b 44 24 1c          	mov    0x1c(%rsp),%eax
  40179c:	69 c0 1e ba 00 00    	imul   $0xba1e,%eax,%eax
  4017a2:	89 44 24 1c          	mov    %eax,0x1c(%rsp)
  4017a6:	8b 44 24 04          	mov    0x4(%rsp),%eax
  4017aa:	69 c0 80 ad 00 00    	imul   $0xad80,%eax,%eax
  4017b0:	89 44 24 04          	mov    %eax,0x4(%rsp)
  4017b4:	8b 44 24 08          	mov    0x8(%rsp),%eax
  4017b8:	69 c0 8c d2 00 00    	imul   $0xd28c,%eax,%eax
  4017be:	89 44 24 08          	mov    %eax,0x8(%rsp)
  4017c2:	8b 44 24 08          	mov    0x8(%rsp),%eax
  4017c6:	69 c0 5c b0 00 00    	imul   $0xb05c,%eax,%eax
  4017cc:	89 44 24 08          	mov    %eax,0x8(%rsp)
  4017d0:	8b 44 24 04          	mov    0x4(%rsp),%eax
  4017d4:	69 c0 ce b4 00 00    	imul   $0xb4ce,%eax,%eax
  4017da:	89 44 24 04          	mov    %eax,0x4(%rsp)
  4017de:	8b 44 24 20          	mov    0x20(%rsp),%eax
  4017e2:	69 c0 14 23 00 00    	imul   $0x2314,%eax,%eax
  4017e8:	89 44 24 20          	mov    %eax,0x20(%rsp)
  4017ec:	8b 44 24 24          	mov    0x24(%rsp),%eax
  4017f0:	69 c0 5d 6a 00 00    	imul   $0x6a5d,%eax,%eax
  4017f6:	89 44 24 24          	mov    %eax,0x24(%rsp)
  4017fa:	8b 44 24 08          	mov    0x8(%rsp),%eax
  4017fe:	69 c0 03 8b 00 00    	imul   $0x8b03,%eax,%eax
  401804:	89 44 24 08          	mov    %eax,0x8(%rsp)
  401808:	8b 44 24 20          	mov    0x20(%rsp),%eax
  40180c:	69 c0 bb af 00 00    	imul   $0xafbb,%eax,%eax
  401812:	89 44 24 20          	mov    %eax,0x20(%rsp)
  401816:	8b 44 24 08          	mov    0x8(%rsp),%eax
  40181a:	69 c0 9d 0e 00 00    	imul   $0xe9d,%eax,%eax
  401820:	89 44 24 08          	mov    %eax,0x8(%rsp)
  401824:	8b 44 24 04          	mov    0x4(%rsp),%eax
  401828:	69 c0 52 da 00 00    	imul   $0xda52,%eax,%eax
  40182e:	89 44 24 04          	mov    %eax,0x4(%rsp)
  401832:	ba 00 00 00 00       	mov    $0x0,%edx
  401837:	b8 00 00 00 00       	mov    $0x0,%eax
  40183c:	eb 0a                	jmp    401848 <scramble+0x4b9>
  40183e:	89 d1                	mov    %edx,%ecx
  401840:	8b 0c 8c             	mov    (%rsp,%rcx,4),%ecx
  401843:	01 c8                	add    %ecx,%eax
  401845:	83 c2 01             	add    $0x1,%edx
  401848:	83 fa 09             	cmp    $0x9,%edx
  40184b:	76 f1                	jbe    40183e <scramble+0x4af>
  40184d:	48 8b 74 24 28       	mov    0x28(%rsp),%rsi
  401852:	64 48 33 34 25 28 00 	xor    %fs:0x28,%rsi
  401859:	00 00 
  40185b:	74 05                	je     401862 <scramble+0x4d3>
  40185d:	e8 8e f4 ff ff       	callq  400cf0 <__stack_chk_fail@plt>
  401862:	48 83 c4 38          	add    $0x38,%rsp
  401866:	c3                   	retq   

0000000000401867 <getbuf>:
  401867:	48 83 ec 18          	sub    $0x18,%rsp
  40186b:	48 89 e7             	mov    %rsp,%rdi
  40186e:	e8 9f 03 00 00       	callq  401c12 <Gets>
  401873:	b8 01 00 00 00       	mov    $0x1,%eax
  401878:	48 83 c4 18          	add    $0x18,%rsp
  40187c:	c3                   	retq   

000000000040187d <touch1>:
  40187d:	48 83 ec 08          	sub    $0x8,%rsp
  401881:	c7 05 91 3c 20 00 01 	movl   $0x1,0x203c91(%rip)        # 60551c <vlevel>
  401888:	00 00 00 
  40188b:	bf 1d 34 40 00       	mov    $0x40341d,%edi
  401890:	e8 3b f4 ff ff       	callq  400cd0 <puts@plt>
  401895:	bf 01 00 00 00       	mov    $0x1,%edi
  40189a:	e8 b8 05 00 00       	callq  401e57 <validate>
  40189f:	bf 00 00 00 00       	mov    $0x0,%edi
  4018a4:	e8 a7 f5 ff ff       	callq  400e50 <exit@plt>

00000000004018a9 <touch2>:
  4018a9:	48 83 ec 08          	sub    $0x8,%rsp
  4018ad:	89 fa                	mov    %edi,%edx
  4018af:	c7 05 63 3c 20 00 02 	movl   $0x2,0x203c63(%rip)        # 60551c <vlevel>
  4018b6:	00 00 00 
  4018b9:	39 3d 65 3c 20 00    	cmp    %edi,0x203c65(%rip)        # 605524 <cookie>
  4018bf:	75 20                	jne    4018e1 <touch2+0x38>
  4018c1:	be 40 34 40 00       	mov    $0x403440,%esi
  4018c6:	bf 01 00 00 00       	mov    $0x1,%edi
  4018cb:	b8 00 00 00 00       	mov    $0x0,%eax
  4018d0:	e8 2b f5 ff ff       	callq  400e00 <__printf_chk@plt>
  4018d5:	bf 02 00 00 00       	mov    $0x2,%edi
  4018da:	e8 78 05 00 00       	callq  401e57 <validate>
  4018df:	eb 1e                	jmp    4018ff <touch2+0x56>
  4018e1:	be 68 34 40 00       	mov    $0x403468,%esi
  4018e6:	bf 01 00 00 00       	mov    $0x1,%edi
  4018eb:	b8 00 00 00 00       	mov    $0x0,%eax
  4018f0:	e8 0b f5 ff ff       	callq  400e00 <__printf_chk@plt>
  4018f5:	bf 02 00 00 00       	mov    $0x2,%edi
  4018fa:	e8 34 06 00 00       	callq  401f33 <fail>
  4018ff:	bf 00 00 00 00       	mov    $0x0,%edi
  401904:	e8 47 f5 ff ff       	callq  400e50 <exit@plt>

0000000000401909 <hexmatch>:
  401909:	41 54                	push   %r12
  40190b:	55                   	push   %rbp
  40190c:	53                   	push   %rbx
  40190d:	48 83 c4 80          	add    $0xffffffffffffff80,%rsp
  401911:	89 fd                	mov    %edi,%ebp
  401913:	48 89 f3             	mov    %rsi,%rbx
  401916:	64 48 8b 04 25 28 00 	mov    %fs:0x28,%rax
  40191d:	00 00 
  40191f:	48 89 44 24 78       	mov    %rax,0x78(%rsp)
  401924:	31 c0                	xor    %eax,%eax
  401926:	e8 95 f4 ff ff       	callq  400dc0 <random@plt>
  40192b:	48 89 c1             	mov    %rax,%rcx
  40192e:	48 ba 0b d7 a3 70 3d 	movabs $0xa3d70a3d70a3d70b,%rdx
  401935:	0a d7 a3 
  401938:	48 f7 ea             	imul   %rdx
  40193b:	48 01 ca             	add    %rcx,%rdx
  40193e:	48 c1 fa 06          	sar    $0x6,%rdx
  401942:	48 89 c8             	mov    %rcx,%rax
  401945:	48 c1 f8 3f          	sar    $0x3f,%rax
  401949:	48 29 c2             	sub    %rax,%rdx
  40194c:	48 8d 04 92          	lea    (%rdx,%rdx,4),%rax
  401950:	48 8d 14 80          	lea    (%rax,%rax,4),%rdx
  401954:	48 8d 04 95 00 00 00 	lea    0x0(,%rdx,4),%rax
  40195b:	00 
  40195c:	48 29 c1             	sub    %rax,%rcx
  40195f:	4c 8d 24 0c          	lea    (%rsp,%rcx,1),%r12
  401963:	41 89 e8             	mov    %ebp,%r8d
  401966:	b9 3a 34 40 00       	mov    $0x40343a,%ecx
  40196b:	48 c7 c2 ff ff ff ff 	mov    $0xffffffffffffffff,%rdx
  401972:	be 01 00 00 00       	mov    $0x1,%esi
  401977:	4c 89 e7             	mov    %r12,%rdi
  40197a:	b8 00 00 00 00       	mov    $0x0,%eax
  40197f:	e8 fc f4 ff ff       	callq  400e80 <__sprintf_chk@plt>
  401984:	ba 09 00 00 00       	mov    $0x9,%edx
  401989:	4c 89 e6             	mov    %r12,%rsi
  40198c:	48 89 df             	mov    %rbx,%rdi
  40198f:	e8 1c f3 ff ff       	callq  400cb0 <strncmp@plt>
  401994:	85 c0                	test   %eax,%eax
  401996:	0f 94 c0             	sete   %al
  401999:	48 8b 5c 24 78       	mov    0x78(%rsp),%rbx
  40199e:	64 48 33 1c 25 28 00 	xor    %fs:0x28,%rbx
  4019a5:	00 00 
  4019a7:	74 05                	je     4019ae <hexmatch+0xa5>
  4019a9:	e8 42 f3 ff ff       	callq  400cf0 <__stack_chk_fail@plt>
  4019ae:	0f b6 c0             	movzbl %al,%eax
  4019b1:	48 83 ec 80          	sub    $0xffffffffffffff80,%rsp
  4019b5:	5b                   	pop    %rbx
  4019b6:	5d                   	pop    %rbp
  4019b7:	41 5c                	pop    %r12
  4019b9:	c3                   	retq   

00000000004019ba <touch3>:
  4019ba:	53                   	push   %rbx
  4019bb:	48 89 fb             	mov    %rdi,%rbx
  4019be:	c7 05 54 3b 20 00 03 	movl   $0x3,0x203b54(%rip)        # 60551c <vlevel>
  4019c5:	00 00 00 
  4019c8:	48 89 fe             	mov    %rdi,%rsi
  4019cb:	8b 3d 53 3b 20 00    	mov    0x203b53(%rip),%edi        # 605524 <cookie>
  4019d1:	e8 33 ff ff ff       	callq  401909 <hexmatch>
  4019d6:	85 c0                	test   %eax,%eax
  4019d8:	74 23                	je     4019fd <touch3+0x43>
  4019da:	48 89 da             	mov    %rbx,%rdx
  4019dd:	be 90 34 40 00       	mov    $0x403490,%esi
  4019e2:	bf 01 00 00 00       	mov    $0x1,%edi
  4019e7:	b8 00 00 00 00       	mov    $0x0,%eax
  4019ec:	e8 0f f4 ff ff       	callq  400e00 <__printf_chk@plt>
  4019f1:	bf 03 00 00 00       	mov    $0x3,%edi
  4019f6:	e8 5c 04 00 00       	callq  401e57 <validate>
  4019fb:	eb 21                	jmp    401a1e <touch3+0x64>
  4019fd:	48 89 da             	mov    %rbx,%rdx
  401a00:	be b8 34 40 00       	mov    $0x4034b8,%esi
  401a05:	bf 01 00 00 00       	mov    $0x1,%edi
  401a0a:	b8 00 00 00 00       	mov    $0x0,%eax
  401a0f:	e8 ec f3 ff ff       	callq  400e00 <__printf_chk@plt>
  401a14:	bf 03 00 00 00       	mov    $0x3,%edi
  401a19:	e8 15 05 00 00       	callq  401f33 <fail>
  401a1e:	bf 00 00 00 00       	mov    $0x0,%edi
  401a23:	e8 28 f4 ff ff       	callq  400e50 <exit@plt>

0000000000401a28 <test>:
  401a28:	48 83 ec 08          	sub    $0x8,%rsp
  401a2c:	b8 00 00 00 00       	mov    $0x0,%eax
  401a31:	e8 31 fe ff ff       	callq  401867 <getbuf>
  401a36:	89 c2                	mov    %eax,%edx
  401a38:	be e0 34 40 00       	mov    $0x4034e0,%esi
  401a3d:	bf 01 00 00 00       	mov    $0x1,%edi
  401a42:	b8 00 00 00 00       	mov    $0x0,%eax
  401a47:	e8 b4 f3 ff ff       	callq  400e00 <__printf_chk@plt>
  401a4c:	48 83 c4 08          	add    $0x8,%rsp
  401a50:	c3                   	retq   

0000000000401a51 <start_farm>:
  401a51:	b8 01 00 00 00       	mov    $0x1,%eax
  401a56:	c3                   	retq   

0000000000401a57 <addval_466>:
  401a57:	8d 87 48 89 c7 c3    	lea    -0x3c3876b8(%rdi),%eax
  401a5d:	c3                   	retq   

0000000000401a5e <addval_289>:
  401a5e:	8d 87 e2 58 90 90    	lea    -0x6f6fa71e(%rdi),%eax
  401a64:	c3                   	retq   

0000000000401a65 <setval_339>:
  401a65:	c7 07 48 89 c7 c3    	movl   $0xc3c78948,(%rdi)
  401a6b:	c3                   	retq   

0000000000401a6c <addval_332>:
  401a6c:	8d 87 48 88 c7 c3    	lea    -0x3c3877b8(%rdi),%eax
  401a72:	c3                   	retq   

0000000000401a73 <getval_248>:
  401a73:	b8 ad 8c 28 58       	mov    $0x58288cad,%eax
  401a78:	c3                   	retq   

0000000000401a79 <setval_116>:
  401a79:	c7 07 48 89 c7 c1    	movl   $0xc1c78948,(%rdi)
  401a7f:	c3                   	retq   

0000000000401a80 <addval_105>:
  401a80:	8d 87 ff 09 f4 50    	lea    0x50f409ff(%rdi),%eax
  401a86:	c3                   	retq   

0000000000401a87 <setval_100>:
  401a87:	c7 07 58 90 92 c3    	movl   $0xc3929058,(%rdi)
  401a8d:	c3                   	retq   

0000000000401a8e <mid_farm>:
  401a8e:	b8 01 00 00 00       	mov    $0x1,%eax
  401a93:	c3                   	retq   

0000000000401a94 <add_xy>:
  401a94:	48 8d 04 37          	lea    (%rdi,%rsi,1),%rax
  401a98:	c3                   	retq   

0000000000401a99 <getval_163>:
  401a99:	b8 8b d1 38 db       	mov    $0xdb38d18b,%eax
  401a9e:	c3                   	retq   

0000000000401a9f <setval_176>:
  401a9f:	c7 07 9a a9 d1 90    	movl   $0x90d1a99a,(%rdi)
  401aa5:	c3                   	retq   

0000000000401aa6 <getval_362>:
  401aa6:	b8 89 c2 c4 c0       	mov    $0xc0c4c289,%eax
  401aab:	c3                   	retq   

0000000000401aac <addval_382>:
  401aac:	8d 87 89 ce 78 c0    	lea    -0x3f873177(%rdi),%eax
  401ab2:	c3                   	retq   

0000000000401ab3 <addval_299>:
  401ab3:	8d 87 ba 89 c2 c3    	lea    -0x3c3d7646(%rdi),%eax
  401ab9:	c3                   	retq   

0000000000401aba <addval_441>:
  401aba:	8d 87 38 48 81 e0    	lea    -0x1f7eb7c8(%rdi),%eax
  401ac0:	c3                   	retq   

0000000000401ac1 <getval_306>:
  401ac1:	b8 a9 ce 90 c3       	mov    $0xc390cea9,%eax
  401ac6:	c3                   	retq   

0000000000401ac7 <addval_177>:
  401ac7:	8d 87 89 d1 90 90    	lea    -0x6f6f2e77(%rdi),%eax
  401acd:	c3                   	retq   

0000000000401ace <addval_132>:
  401ace:	8d 87 48 89 e0 94    	lea    -0x6b1f76b8(%rdi),%eax
  401ad4:	c3                   	retq   

0000000000401ad5 <getval_420>:
  401ad5:	b8 ac 89 ce 90       	mov    $0x90ce89ac,%eax
  401ada:	c3                   	retq   

0000000000401adb <getval_454>:
  401adb:	b8 4c 89 d1 94       	mov    $0x94d1894c,%eax
  401ae0:	c3                   	retq   

0000000000401ae1 <addval_371>:
  401ae1:	8d 87 81 c2 20 c0    	lea    -0x3fdf3d7f(%rdi),%eax
  401ae7:	c3                   	retq   

0000000000401ae8 <addval_187>:
  401ae8:	8d 87 89 c2 60 d2    	lea    -0x2d9f3d77(%rdi),%eax
  401aee:	c3                   	retq   

0000000000401aef <getval_264>:
  401aef:	b8 48 89 e0 92       	mov    $0x92e08948,%eax
  401af4:	c3                   	retq   

0000000000401af5 <addval_389>:
  401af5:	8d 87 8b d1 c3 84    	lea    -0x7b3c2e75(%rdi),%eax
  401afb:	c3                   	retq   

0000000000401afc <getval_207>:
  401afc:	b8 c9 ce 20 c0       	mov    $0xc020cec9,%eax
  401b01:	c3                   	retq   

0000000000401b02 <getval_243>:
  401b02:	b8 48 89 e0 c7       	mov    $0xc7e08948,%eax
  401b07:	c3                   	retq   

0000000000401b08 <setval_351>:
  401b08:	c7 07 c9 ce 20 d2    	movl   $0xd220cec9,(%rdi)
  401b0e:	c3                   	retq   

0000000000401b0f <getval_450>:
  401b0f:	b8 48 89 e0 c3       	mov    $0xc3e08948,%eax
  401b14:	c3                   	retq   

0000000000401b15 <setval_265>:
  401b15:	c7 07 88 ce 08 c9    	movl   $0xc908ce88,(%rdi)
  401b1b:	c3                   	retq   

0000000000401b1c <setval_384>:
  401b1c:	c7 07 89 c2 84 db    	movl   $0xdb84c289,(%rdi)
  401b22:	c3                   	retq   

0000000000401b23 <addval_206>:
  401b23:	8d 87 89 d1 92 c3    	lea    -0x3c6d2e77(%rdi),%eax
  401b29:	c3                   	retq   

0000000000401b2a <getval_262>:
  401b2a:	b8 48 89 e0 c2       	mov    $0xc2e08948,%eax
  401b2f:	c3                   	retq   

0000000000401b30 <setval_367>:
  401b30:	c7 07 89 d1 94 c0    	movl   $0xc094d189,(%rdi)
  401b36:	c3                   	retq   

0000000000401b37 <getval_449>:
  401b37:	b8 89 ce 38 c9       	mov    $0xc938ce89,%eax
  401b3c:	c3                   	retq   

0000000000401b3d <addval_331>:
  401b3d:	8d 87 8d ce 08 c9    	lea    -0x36f73173(%rdi),%eax
  401b43:	c3                   	retq   

0000000000401b44 <getval_101>:
  401b44:	b8 89 d1 38 c9       	mov    $0xc938d189,%eax
  401b49:	c3                   	retq   

0000000000401b4a <addval_158>:
  401b4a:	8d 87 8b c2 84 c0    	lea    -0x3f7b3d75(%rdi),%eax
  401b50:	c3                   	retq   

0000000000401b51 <setval_127>:
  401b51:	c7 07 99 c2 20 db    	movl   $0xdb20c299,(%rdi)
  401b57:	c3                   	retq   

0000000000401b58 <addval_333>:
  401b58:	8d 87 3f 48 81 e0    	lea    -0x1f7eb7c1(%rdi),%eax
  401b5e:	c3                   	retq   

0000000000401b5f <getval_107>:
  401b5f:	b8 81 c2 38 c0       	mov    $0xc038c281,%eax
  401b64:	c3                   	retq   

0000000000401b65 <setval_272>:
  401b65:	c7 07 48 89 e0 90    	movl   $0x90e08948,(%rdi)
  401b6b:	c3                   	retq   

0000000000401b6c <end_farm>:
  401b6c:	b8 01 00 00 00       	mov    $0x1,%eax
  401b71:	c3                   	retq   

0000000000401b72 <save_char>:
  401b72:	8b 05 cc 45 20 00    	mov    0x2045cc(%rip),%eax        # 606144 <gets_cnt>
  401b78:	3d ff 03 00 00       	cmp    $0x3ff,%eax
  401b7d:	7f 49                	jg     401bc8 <save_char+0x56>
  401b7f:	8d 14 40             	lea    (%rax,%rax,2),%edx
  401b82:	89 f9                	mov    %edi,%ecx
  401b84:	c0 e9 04             	shr    $0x4,%cl
  401b87:	83 e1 0f             	and    $0xf,%ecx
  401b8a:	0f b6 b1 00 38 40 00 	movzbl 0x403800(%rcx),%esi
  401b91:	48 63 ca             	movslq %edx,%rcx
  401b94:	40 88 b1 40 55 60 00 	mov    %sil,0x605540(%rcx)
  401b9b:	8d 4a 01             	lea    0x1(%rdx),%ecx
  401b9e:	83 e7 0f             	and    $0xf,%edi
  401ba1:	0f b6 b7 00 38 40 00 	movzbl 0x403800(%rdi),%esi
  401ba8:	48 63 c9             	movslq %ecx,%rcx
  401bab:	40 88 b1 40 55 60 00 	mov    %sil,0x605540(%rcx)
  401bb2:	83 c2 02             	add    $0x2,%edx
  401bb5:	48 63 d2             	movslq %edx,%rdx
  401bb8:	c6 82 40 55 60 00 20 	movb   $0x20,0x605540(%rdx)
  401bbf:	83 c0 01             	add    $0x1,%eax
  401bc2:	89 05 7c 45 20 00    	mov    %eax,0x20457c(%rip)        # 606144 <gets_cnt>
  401bc8:	f3 c3                	repz retq 

0000000000401bca <save_term>:
  401bca:	8b 05 74 45 20 00    	mov    0x204574(%rip),%eax        # 606144 <gets_cnt>
  401bd0:	8d 04 40             	lea    (%rax,%rax,2),%eax
  401bd3:	48 98                	cltq   
  401bd5:	c6 80 40 55 60 00 00 	movb   $0x0,0x605540(%rax)
  401bdc:	c3                   	retq   

0000000000401bdd <check_fail>:
  401bdd:	48 83 ec 08          	sub    $0x8,%rsp
  401be1:	0f be 15 60 45 20 00 	movsbl 0x204560(%rip),%edx        # 606148 <target_prefix>
  401be8:	41 b8 40 55 60 00    	mov    $0x605540,%r8d
  401bee:	8b 0d 24 39 20 00    	mov    0x203924(%rip),%ecx        # 605518 <check_level>
  401bf4:	be 03 35 40 00       	mov    $0x403503,%esi
  401bf9:	bf 01 00 00 00       	mov    $0x1,%edi
  401bfe:	b8 00 00 00 00       	mov    $0x0,%eax
  401c03:	e8 f8 f1 ff ff       	callq  400e00 <__printf_chk@plt>
  401c08:	bf 01 00 00 00       	mov    $0x1,%edi
  401c0d:	e8 3e f2 ff ff       	callq  400e50 <exit@plt>

0000000000401c12 <Gets>:
  401c12:	41 54                	push   %r12
  401c14:	55                   	push   %rbp
  401c15:	53                   	push   %rbx
  401c16:	49 89 fc             	mov    %rdi,%r12
  401c19:	c7 05 21 45 20 00 00 	movl   $0x0,0x204521(%rip)        # 606144 <gets_cnt>
  401c20:	00 00 00 
  401c23:	48 89 fb             	mov    %rdi,%rbx
  401c26:	eb 11                	jmp    401c39 <Gets+0x27>
  401c28:	48 8d 6b 01          	lea    0x1(%rbx),%rbp
  401c2c:	88 03                	mov    %al,(%rbx)
  401c2e:	0f b6 f8             	movzbl %al,%edi
  401c31:	e8 3c ff ff ff       	callq  401b72 <save_char>
  401c36:	48 89 eb             	mov    %rbp,%rbx
  401c39:	48 8b 3d d0 38 20 00 	mov    0x2038d0(%rip),%rdi        # 605510 <infile>
  401c40:	e8 8b f1 ff ff       	callq  400dd0 <_IO_getc@plt>
  401c45:	83 f8 ff             	cmp    $0xffffffff,%eax
  401c48:	74 05                	je     401c4f <Gets+0x3d>
  401c4a:	83 f8 0a             	cmp    $0xa,%eax
  401c4d:	75 d9                	jne    401c28 <Gets+0x16>
  401c4f:	c6 03 00             	movb   $0x0,(%rbx)
  401c52:	b8 00 00 00 00       	mov    $0x0,%eax
  401c57:	e8 6e ff ff ff       	callq  401bca <save_term>
  401c5c:	4c 89 e0             	mov    %r12,%rax
  401c5f:	5b                   	pop    %rbx
  401c60:	5d                   	pop    %rbp
  401c61:	41 5c                	pop    %r12
  401c63:	c3                   	retq   

0000000000401c64 <notify_server>:
  401c64:	53                   	push   %rbx
  401c65:	48 81 ec 10 40 00 00 	sub    $0x4010,%rsp
  401c6c:	64 48 8b 04 25 28 00 	mov    %fs:0x28,%rax
  401c73:	00 00 
  401c75:	48 89 84 24 08 40 00 	mov    %rax,0x4008(%rsp)
  401c7c:	00 
  401c7d:	31 c0                	xor    %eax,%eax
  401c7f:	83 3d a2 38 20 00 00 	cmpl   $0x0,0x2038a2(%rip)        # 605528 <is_checker>
  401c86:	0f 85 aa 01 00 00    	jne    401e36 <notify_server+0x1d2>
  401c8c:	89 fb                	mov    %edi,%ebx
  401c8e:	8b 05 b0 44 20 00    	mov    0x2044b0(%rip),%eax        # 606144 <gets_cnt>
  401c94:	83 c0 64             	add    $0x64,%eax
  401c97:	3d 00 20 00 00       	cmp    $0x2000,%eax
  401c9c:	7e 1e                	jle    401cbc <notify_server+0x58>
  401c9e:	be 38 36 40 00       	mov    $0x403638,%esi
  401ca3:	bf 01 00 00 00       	mov    $0x1,%edi
  401ca8:	b8 00 00 00 00       	mov    $0x0,%eax
  401cad:	e8 4e f1 ff ff       	callq  400e00 <__printf_chk@plt>
  401cb2:	bf 01 00 00 00       	mov    $0x1,%edi
  401cb7:	e8 94 f1 ff ff       	callq  400e50 <exit@plt>
  401cbc:	0f be 05 85 44 20 00 	movsbl 0x204485(%rip),%eax        # 606148 <target_prefix>
  401cc3:	83 3d de 37 20 00 00 	cmpl   $0x0,0x2037de(%rip)        # 6054a8 <notify>
  401cca:	74 08                	je     401cd4 <notify_server+0x70>
  401ccc:	8b 15 4e 38 20 00    	mov    0x20384e(%rip),%edx        # 605520 <authkey>
  401cd2:	eb 05                	jmp    401cd9 <notify_server+0x75>
  401cd4:	ba ff ff ff ff       	mov    $0xffffffff,%edx
  401cd9:	85 db                	test   %ebx,%ebx
  401cdb:	74 08                	je     401ce5 <notify_server+0x81>
  401cdd:	41 b9 19 35 40 00    	mov    $0x403519,%r9d
  401ce3:	eb 06                	jmp    401ceb <notify_server+0x87>
  401ce5:	41 b9 1e 35 40 00    	mov    $0x40351e,%r9d
  401ceb:	68 40 55 60 00       	pushq  $0x605540
  401cf0:	56                   	push   %rsi
  401cf1:	50                   	push   %rax
  401cf2:	52                   	push   %rdx
  401cf3:	44 8b 05 6e 34 20 00 	mov    0x20346e(%rip),%r8d        # 605168 <target_id>
  401cfa:	b9 23 35 40 00       	mov    $0x403523,%ecx
  401cff:	ba 00 20 00 00       	mov    $0x2000,%edx
  401d04:	be 01 00 00 00       	mov    $0x1,%esi
  401d09:	48 8d 7c 24 20       	lea    0x20(%rsp),%rdi
  401d0e:	b8 00 00 00 00       	mov    $0x0,%eax
  401d13:	e8 68 f1 ff ff       	callq  400e80 <__sprintf_chk@plt>
  401d18:	48 83 c4 20          	add    $0x20,%rsp
  401d1c:	83 3d 85 37 20 00 00 	cmpl   $0x0,0x203785(%rip)        # 6054a8 <notify>
  401d23:	0f 84 81 00 00 00    	je     401daa <notify_server+0x146>
  401d29:	85 db                	test   %ebx,%ebx
  401d2b:	74 6e                	je     401d9b <notify_server+0x137>
  401d2d:	4c 8d 8c 24 00 20 00 	lea    0x2000(%rsp),%r9
  401d34:	00 
  401d35:	41 b8 00 00 00 00    	mov    $0x0,%r8d
  401d3b:	48 89 e1             	mov    %rsp,%rcx
  401d3e:	48 8b 15 2b 34 20 00 	mov    0x20342b(%rip),%rdx        # 605170 <lab>
  401d45:	48 8b 35 2c 34 20 00 	mov    0x20342c(%rip),%rsi        # 605178 <course>
  401d4c:	48 8b 3d 0d 34 20 00 	mov    0x20340d(%rip),%rdi        # 605160 <user_id>
  401d53:	e8 09 11 00 00       	callq  402e61 <driver_post>
  401d58:	85 c0                	test   %eax,%eax
  401d5a:	79 26                	jns    401d82 <notify_server+0x11e>
  401d5c:	48 8d 94 24 00 20 00 	lea    0x2000(%rsp),%rdx
  401d63:	00 
  401d64:	be 3f 35 40 00       	mov    $0x40353f,%esi
  401d69:	bf 01 00 00 00       	mov    $0x1,%edi
  401d6e:	b8 00 00 00 00       	mov    $0x0,%eax
  401d73:	e8 88 f0 ff ff       	callq  400e00 <__printf_chk@plt>
  401d78:	bf 01 00 00 00       	mov    $0x1,%edi
  401d7d:	e8 ce f0 ff ff       	callq  400e50 <exit@plt>
  401d82:	bf 68 36 40 00       	mov    $0x403668,%edi
  401d87:	e8 44 ef ff ff       	callq  400cd0 <puts@plt>
  401d8c:	bf 4b 35 40 00       	mov    $0x40354b,%edi
  401d91:	e8 3a ef ff ff       	callq  400cd0 <puts@plt>
  401d96:	e9 9b 00 00 00       	jmpq   401e36 <notify_server+0x1d2>
  401d9b:	bf 55 35 40 00       	mov    $0x403555,%edi
  401da0:	e8 2b ef ff ff       	callq  400cd0 <puts@plt>
  401da5:	e9 8c 00 00 00       	jmpq   401e36 <notify_server+0x1d2>
  401daa:	85 db                	test   %ebx,%ebx
  401dac:	74 07                	je     401db5 <notify_server+0x151>
  401dae:	ba 19 35 40 00       	mov    $0x403519,%edx
  401db3:	eb 05                	jmp    401dba <notify_server+0x156>
  401db5:	ba 1e 35 40 00       	mov    $0x40351e,%edx
  401dba:	be a0 36 40 00       	mov    $0x4036a0,%esi
  401dbf:	bf 01 00 00 00       	mov    $0x1,%edi
  401dc4:	b8 00 00 00 00       	mov    $0x0,%eax
  401dc9:	e8 32 f0 ff ff       	callq  400e00 <__printf_chk@plt>
  401dce:	48 8b 15 8b 33 20 00 	mov    0x20338b(%rip),%rdx        # 605160 <user_id>
  401dd5:	be 5c 35 40 00       	mov    $0x40355c,%esi
  401dda:	bf 01 00 00 00       	mov    $0x1,%edi
  401ddf:	b8 00 00 00 00       	mov    $0x0,%eax
  401de4:	e8 17 f0 ff ff       	callq  400e00 <__printf_chk@plt>
  401de9:	48 8b 15 88 33 20 00 	mov    0x203388(%rip),%rdx        # 605178 <course>
  401df0:	be 69 35 40 00       	mov    $0x403569,%esi
  401df5:	bf 01 00 00 00       	mov    $0x1,%edi
  401dfa:	b8 00 00 00 00       	mov    $0x0,%eax
  401dff:	e8 fc ef ff ff       	callq  400e00 <__printf_chk@plt>
  401e04:	48 8b 15 65 33 20 00 	mov    0x203365(%rip),%rdx        # 605170 <lab>
  401e0b:	be 75 35 40 00       	mov    $0x403575,%esi
  401e10:	bf 01 00 00 00       	mov    $0x1,%edi
  401e15:	b8 00 00 00 00       	mov    $0x0,%eax
  401e1a:	e8 e1 ef ff ff       	callq  400e00 <__printf_chk@plt>
  401e1f:	48 89 e2             	mov    %rsp,%rdx
  401e22:	be 7e 35 40 00       	mov    $0x40357e,%esi
  401e27:	bf 01 00 00 00       	mov    $0x1,%edi
  401e2c:	b8 00 00 00 00       	mov    $0x0,%eax
  401e31:	e8 ca ef ff ff       	callq  400e00 <__printf_chk@plt>
  401e36:	48 8b 84 24 08 40 00 	mov    0x4008(%rsp),%rax
  401e3d:	00 
  401e3e:	64 48 33 04 25 28 00 	xor    %fs:0x28,%rax
  401e45:	00 00 
  401e47:	74 05                	je     401e4e <notify_server+0x1ea>
  401e49:	e8 a2 ee ff ff       	callq  400cf0 <__stack_chk_fail@plt>
  401e4e:	48 81 c4 10 40 00 00 	add    $0x4010,%rsp
  401e55:	5b                   	pop    %rbx
  401e56:	c3                   	retq   

0000000000401e57 <validate>:
  401e57:	4c 8d 54 24 08       	lea    0x8(%rsp),%r10
  401e5c:	48 83 e4 f0          	and    $0xfffffffffffffff0,%rsp
  401e60:	41 ff 72 f8          	pushq  -0x8(%r10)
  401e64:	55                   	push   %rbp
  401e65:	48 89 e5             	mov    %rsp,%rbp
  401e68:	41 52                	push   %r10
  401e6a:	53                   	push   %rbx
  401e6b:	89 fb                	mov    %edi,%ebx
  401e6d:	83 3d b4 36 20 00 00 	cmpl   $0x0,0x2036b4(%rip)        # 605528 <is_checker>
  401e74:	74 6b                	je     401ee1 <validate+0x8a>
  401e76:	39 3d a0 36 20 00    	cmp    %edi,0x2036a0(%rip)        # 60551c <vlevel>
  401e7c:	74 14                	je     401e92 <validate+0x3b>
  401e7e:	bf 8a 35 40 00       	mov    $0x40358a,%edi
  401e83:	e8 48 ee ff ff       	callq  400cd0 <puts@plt>
  401e88:	b8 00 00 00 00       	mov    $0x0,%eax
  401e8d:	e8 4b fd ff ff       	callq  401bdd <check_fail>
  401e92:	8b 15 80 36 20 00    	mov    0x203680(%rip),%edx        # 605518 <check_level>
  401e98:	39 d7                	cmp    %edx,%edi
  401e9a:	74 20                	je     401ebc <validate+0x65>
  401e9c:	89 f9                	mov    %edi,%ecx
  401e9e:	be c8 36 40 00       	mov    $0x4036c8,%esi
  401ea3:	bf 01 00 00 00       	mov    $0x1,%edi
  401ea8:	b8 00 00 00 00       	mov    $0x0,%eax
  401ead:	e8 4e ef ff ff       	callq  400e00 <__printf_chk@plt>
  401eb2:	b8 00 00 00 00       	mov    $0x0,%eax
  401eb7:	e8 21 fd ff ff       	callq  401bdd <check_fail>
  401ebc:	0f be 15 85 42 20 00 	movsbl 0x204285(%rip),%edx        # 606148 <target_prefix>
  401ec3:	41 b8 40 55 60 00    	mov    $0x605540,%r8d
  401ec9:	89 f9                	mov    %edi,%ecx
  401ecb:	be a8 35 40 00       	mov    $0x4035a8,%esi
  401ed0:	bf 01 00 00 00       	mov    $0x1,%edi
  401ed5:	b8 00 00 00 00       	mov    $0x0,%eax
  401eda:	e8 21 ef ff ff       	callq  400e00 <__printf_chk@plt>
  401edf:	eb 49                	jmp    401f2a <validate+0xd3>
  401ee1:	3b 3d 35 36 20 00    	cmp    0x203635(%rip),%edi        # 60551c <vlevel>
  401ee7:	74 18                	je     401f01 <validate+0xaa>
  401ee9:	bf 8a 35 40 00       	mov    $0x40358a,%edi
  401eee:	e8 dd ed ff ff       	callq  400cd0 <puts@plt>
  401ef3:	89 de                	mov    %ebx,%esi
  401ef5:	bf 00 00 00 00       	mov    $0x0,%edi
  401efa:	e8 65 fd ff ff       	callq  401c64 <notify_server>
  401eff:	eb 29                	jmp    401f2a <validate+0xd3>
  401f01:	0f be 0d 40 42 20 00 	movsbl 0x204240(%rip),%ecx        # 606148 <target_prefix>
  401f08:	89 fa                	mov    %edi,%edx
  401f0a:	be f0 36 40 00       	mov    $0x4036f0,%esi
  401f0f:	bf 01 00 00 00       	mov    $0x1,%edi
  401f14:	b8 00 00 00 00       	mov    $0x0,%eax
  401f19:	e8 e2 ee ff ff       	callq  400e00 <__printf_chk@plt>
  401f1e:	89 de                	mov    %ebx,%esi
  401f20:	bf 01 00 00 00       	mov    $0x1,%edi
  401f25:	e8 3a fd ff ff       	callq  401c64 <notify_server>
  401f2a:	5b                   	pop    %rbx
  401f2b:	41 5a                	pop    %r10
  401f2d:	5d                   	pop    %rbp
  401f2e:	49 8d 62 f8          	lea    -0x8(%r10),%rsp
  401f32:	c3                   	retq   

0000000000401f33 <fail>:
  401f33:	48 83 ec 08          	sub    $0x8,%rsp
  401f37:	83 3d ea 35 20 00 00 	cmpl   $0x0,0x2035ea(%rip)        # 605528 <is_checker>
  401f3e:	74 0a                	je     401f4a <fail+0x17>
  401f40:	b8 00 00 00 00       	mov    $0x0,%eax
  401f45:	e8 93 fc ff ff       	callq  401bdd <check_fail>
  401f4a:	89 fe                	mov    %edi,%esi
  401f4c:	bf 00 00 00 00       	mov    $0x0,%edi
  401f51:	e8 0e fd ff ff       	callq  401c64 <notify_server>
  401f56:	48 83 c4 08          	add    $0x8,%rsp
  401f5a:	c3                   	retq   

0000000000401f5b <bushandler>:
  401f5b:	48 83 ec 08          	sub    $0x8,%rsp
  401f5f:	83 3d c2 35 20 00 00 	cmpl   $0x0,0x2035c2(%rip)        # 605528 <is_checker>
  401f66:	74 14                	je     401f7c <bushandler+0x21>
  401f68:	bf bd 35 40 00       	mov    $0x4035bd,%edi
  401f6d:	e8 5e ed ff ff       	callq  400cd0 <puts@plt>
  401f72:	b8 00 00 00 00       	mov    $0x0,%eax
  401f77:	e8 61 fc ff ff       	callq  401bdd <check_fail>
  401f7c:	bf 28 37 40 00       	mov    $0x403728,%edi
  401f81:	e8 4a ed ff ff       	callq  400cd0 <puts@plt>
  401f86:	bf c7 35 40 00       	mov    $0x4035c7,%edi
  401f8b:	e8 40 ed ff ff       	callq  400cd0 <puts@plt>
  401f90:	be 00 00 00 00       	mov    $0x0,%esi
  401f95:	bf 00 00 00 00       	mov    $0x0,%edi
  401f9a:	e8 c5 fc ff ff       	callq  401c64 <notify_server>
  401f9f:	bf 01 00 00 00       	mov    $0x1,%edi
  401fa4:	e8 a7 ee ff ff       	callq  400e50 <exit@plt>

0000000000401fa9 <seghandler>:
  401fa9:	48 83 ec 08          	sub    $0x8,%rsp
  401fad:	83 3d 74 35 20 00 00 	cmpl   $0x0,0x203574(%rip)        # 605528 <is_checker>
  401fb4:	74 14                	je     401fca <seghandler+0x21>
  401fb6:	bf dd 35 40 00       	mov    $0x4035dd,%edi
  401fbb:	e8 10 ed ff ff       	callq  400cd0 <puts@plt>
  401fc0:	b8 00 00 00 00       	mov    $0x0,%eax
  401fc5:	e8 13 fc ff ff       	callq  401bdd <check_fail>
  401fca:	bf 48 37 40 00       	mov    $0x403748,%edi
  401fcf:	e8 fc ec ff ff       	callq  400cd0 <puts@plt>
  401fd4:	bf c7 35 40 00       	mov    $0x4035c7,%edi
  401fd9:	e8 f2 ec ff ff       	callq  400cd0 <puts@plt>
  401fde:	be 00 00 00 00       	mov    $0x0,%esi
  401fe3:	bf 00 00 00 00       	mov    $0x0,%edi
  401fe8:	e8 77 fc ff ff       	callq  401c64 <notify_server>
  401fed:	bf 01 00 00 00       	mov    $0x1,%edi
  401ff2:	e8 59 ee ff ff       	callq  400e50 <exit@plt>

0000000000401ff7 <illegalhandler>:
  401ff7:	48 83 ec 08          	sub    $0x8,%rsp
  401ffb:	83 3d 26 35 20 00 00 	cmpl   $0x0,0x203526(%rip)        # 605528 <is_checker>
  402002:	74 14                	je     402018 <illegalhandler+0x21>
  402004:	bf f0 35 40 00       	mov    $0x4035f0,%edi
  402009:	e8 c2 ec ff ff       	callq  400cd0 <puts@plt>
  40200e:	b8 00 00 00 00       	mov    $0x0,%eax
  402013:	e8 c5 fb ff ff       	callq  401bdd <check_fail>
  402018:	bf 70 37 40 00       	mov    $0x403770,%edi
  40201d:	e8 ae ec ff ff       	callq  400cd0 <puts@plt>
  402022:	bf c7 35 40 00       	mov    $0x4035c7,%edi
  402027:	e8 a4 ec ff ff       	callq  400cd0 <puts@plt>
  40202c:	be 00 00 00 00       	mov    $0x0,%esi
  402031:	bf 00 00 00 00       	mov    $0x0,%edi
  402036:	e8 29 fc ff ff       	callq  401c64 <notify_server>
  40203b:	bf 01 00 00 00       	mov    $0x1,%edi
  402040:	e8 0b ee ff ff       	callq  400e50 <exit@plt>

0000000000402045 <sigalrmhandler>:
  402045:	48 83 ec 08          	sub    $0x8,%rsp
  402049:	83 3d d8 34 20 00 00 	cmpl   $0x0,0x2034d8(%rip)        # 605528 <is_checker>
  402050:	74 14                	je     402066 <sigalrmhandler+0x21>
  402052:	bf 04 36 40 00       	mov    $0x403604,%edi
  402057:	e8 74 ec ff ff       	callq  400cd0 <puts@plt>
  40205c:	b8 00 00 00 00       	mov    $0x0,%eax
  402061:	e8 77 fb ff ff       	callq  401bdd <check_fail>
  402066:	ba 05 00 00 00       	mov    $0x5,%edx
  40206b:	be a0 37 40 00       	mov    $0x4037a0,%esi
  402070:	bf 01 00 00 00       	mov    $0x1,%edi
  402075:	b8 00 00 00 00       	mov    $0x0,%eax
  40207a:	e8 81 ed ff ff       	callq  400e00 <__printf_chk@plt>
  40207f:	be 00 00 00 00       	mov    $0x0,%esi
  402084:	bf 00 00 00 00       	mov    $0x0,%edi
  402089:	e8 d6 fb ff ff       	callq  401c64 <notify_server>
  40208e:	bf 01 00 00 00       	mov    $0x1,%edi
  402093:	e8 b8 ed ff ff       	callq  400e50 <exit@plt>

0000000000402098 <launch>:
  402098:	55                   	push   %rbp
  402099:	48 89 e5             	mov    %rsp,%rbp
  40209c:	48 83 ec 10          	sub    $0x10,%rsp
  4020a0:	48 89 fa             	mov    %rdi,%rdx
  4020a3:	64 48 8b 04 25 28 00 	mov    %fs:0x28,%rax
  4020aa:	00 00 
  4020ac:	48 89 45 f8          	mov    %rax,-0x8(%rbp)
  4020b0:	31 c0                	xor    %eax,%eax
  4020b2:	48 8d 47 1e          	lea    0x1e(%rdi),%rax
  4020b6:	48 83 e0 f0          	and    $0xfffffffffffffff0,%rax
  4020ba:	48 29 c4             	sub    %rax,%rsp
  4020bd:	48 8d 7c 24 0f       	lea    0xf(%rsp),%rdi
  4020c2:	48 83 e7 f0          	and    $0xfffffffffffffff0,%rdi
  4020c6:	be f4 00 00 00       	mov    $0xf4,%esi
  4020cb:	e8 40 ec ff ff       	callq  400d10 <memset@plt>
  4020d0:	48 8b 05 e9 33 20 00 	mov    0x2033e9(%rip),%rax        # 6054c0 <stdin@@GLIBC_2.2.5>
  4020d7:	48 39 05 32 34 20 00 	cmp    %rax,0x203432(%rip)        # 605510 <infile>
  4020de:	75 14                	jne    4020f4 <launch+0x5c>
  4020e0:	be 0c 36 40 00       	mov    $0x40360c,%esi
  4020e5:	bf 01 00 00 00       	mov    $0x1,%edi
  4020ea:	b8 00 00 00 00       	mov    $0x0,%eax
  4020ef:	e8 0c ed ff ff       	callq  400e00 <__printf_chk@plt>
  4020f4:	c7 05 1e 34 20 00 00 	movl   $0x0,0x20341e(%rip)        # 60551c <vlevel>
  4020fb:	00 00 00 
  4020fe:	b8 00 00 00 00       	mov    $0x0,%eax
  402103:	e8 20 f9 ff ff       	callq  401a28 <test>
  402108:	83 3d 19 34 20 00 00 	cmpl   $0x0,0x203419(%rip)        # 605528 <is_checker>
  40210f:	74 14                	je     402125 <launch+0x8d>
  402111:	bf 19 36 40 00       	mov    $0x403619,%edi
  402116:	e8 b5 eb ff ff       	callq  400cd0 <puts@plt>
  40211b:	b8 00 00 00 00       	mov    $0x0,%eax
  402120:	e8 b8 fa ff ff       	callq  401bdd <check_fail>
  402125:	bf 24 36 40 00       	mov    $0x403624,%edi
  40212a:	e8 a1 eb ff ff       	callq  400cd0 <puts@plt>
  40212f:	48 8b 45 f8          	mov    -0x8(%rbp),%rax
  402133:	64 48 33 04 25 28 00 	xor    %fs:0x28,%rax
  40213a:	00 00 
  40213c:	74 05                	je     402143 <launch+0xab>
  40213e:	e8 ad eb ff ff       	callq  400cf0 <__stack_chk_fail@plt>
  402143:	c9                   	leaveq 
  402144:	c3                   	retq   

0000000000402145 <stable_launch>:
  402145:	53                   	push   %rbx
  402146:	48 89 3d bb 33 20 00 	mov    %rdi,0x2033bb(%rip)        # 605508 <global_offset>
  40214d:	41 b9 00 00 00 00    	mov    $0x0,%r9d
  402153:	41 b8 00 00 00 00    	mov    $0x0,%r8d
  402159:	b9 32 01 00 00       	mov    $0x132,%ecx
  40215e:	ba 07 00 00 00       	mov    $0x7,%edx
  402163:	be 00 00 10 00       	mov    $0x100000,%esi
  402168:	bf 00 60 58 55       	mov    $0x55586000,%edi
  40216d:	e8 8e eb ff ff       	callq  400d00 <mmap@plt>
  402172:	48 89 c3             	mov    %rax,%rbx
  402175:	48 3d 00 60 58 55    	cmp    $0x55586000,%rax
  40217b:	74 37                	je     4021b4 <stable_launch+0x6f>
  40217d:	be 00 00 10 00       	mov    $0x100000,%esi
  402182:	48 89 c7             	mov    %rax,%rdi
  402185:	e8 66 ec ff ff       	callq  400df0 <munmap@plt>
  40218a:	b9 00 60 58 55       	mov    $0x55586000,%ecx
  40218f:	ba d8 37 40 00       	mov    $0x4037d8,%edx
  402194:	be 01 00 00 00       	mov    $0x1,%esi
  402199:	48 8b 3d 40 33 20 00 	mov    0x203340(%rip),%rdi        # 6054e0 <stderr@@GLIBC_2.2.5>
  4021a0:	b8 00 00 00 00       	mov    $0x0,%eax
  4021a5:	e8 c6 ec ff ff       	callq  400e70 <__fprintf_chk@plt>
  4021aa:	bf 01 00 00 00       	mov    $0x1,%edi
  4021af:	e8 9c ec ff ff       	callq  400e50 <exit@plt>
  4021b4:	48 8d 90 f8 ff 0f 00 	lea    0xffff8(%rax),%rdx
  4021bb:	48 89 15 8e 3f 20 00 	mov    %rdx,0x203f8e(%rip)        # 606150 <stack_top>
  4021c2:	48 89 e0             	mov    %rsp,%rax
  4021c5:	48 89 d4             	mov    %rdx,%rsp
  4021c8:	48 89 c2             	mov    %rax,%rdx
  4021cb:	48 89 15 2e 33 20 00 	mov    %rdx,0x20332e(%rip)        # 605500 <global_save_stack>
  4021d2:	48 8b 3d 2f 33 20 00 	mov    0x20332f(%rip),%rdi        # 605508 <global_offset>
  4021d9:	e8 ba fe ff ff       	callq  402098 <launch>
  4021de:	48 8b 05 1b 33 20 00 	mov    0x20331b(%rip),%rax        # 605500 <global_save_stack>
  4021e5:	48 89 c4             	mov    %rax,%rsp
  4021e8:	be 00 00 10 00       	mov    $0x100000,%esi
  4021ed:	48 89 df             	mov    %rbx,%rdi
  4021f0:	e8 fb eb ff ff       	callq  400df0 <munmap@plt>
  4021f5:	5b                   	pop    %rbx
  4021f6:	c3                   	retq   

00000000004021f7 <rio_readinitb>:
  4021f7:	89 37                	mov    %esi,(%rdi)
  4021f9:	c7 47 04 00 00 00 00 	movl   $0x0,0x4(%rdi)
  402200:	48 8d 47 10          	lea    0x10(%rdi),%rax
  402204:	48 89 47 08          	mov    %rax,0x8(%rdi)
  402208:	c3                   	retq   

0000000000402209 <sigalrm_handler>:
  402209:	48 83 ec 08          	sub    $0x8,%rsp
  40220d:	b9 00 00 00 00       	mov    $0x0,%ecx
  402212:	ba 10 38 40 00       	mov    $0x403810,%edx
  402217:	be 01 00 00 00       	mov    $0x1,%esi
  40221c:	48 8b 3d bd 32 20 00 	mov    0x2032bd(%rip),%rdi        # 6054e0 <stderr@@GLIBC_2.2.5>
  402223:	b8 00 00 00 00       	mov    $0x0,%eax
  402228:	e8 43 ec ff ff       	callq  400e70 <__fprintf_chk@plt>
  40222d:	bf 01 00 00 00       	mov    $0x1,%edi
  402232:	e8 19 ec ff ff       	callq  400e50 <exit@plt>

0000000000402237 <rio_writen>:
  402237:	41 55                	push   %r13
  402239:	41 54                	push   %r12
  40223b:	55                   	push   %rbp
  40223c:	53                   	push   %rbx
  40223d:	48 83 ec 08          	sub    $0x8,%rsp
  402241:	41 89 fc             	mov    %edi,%r12d
  402244:	48 89 f5             	mov    %rsi,%rbp
  402247:	49 89 d5             	mov    %rdx,%r13
  40224a:	48 89 d3             	mov    %rdx,%rbx
  40224d:	eb 28                	jmp    402277 <rio_writen+0x40>
  40224f:	48 89 da             	mov    %rbx,%rdx
  402252:	48 89 ee             	mov    %rbp,%rsi
  402255:	44 89 e7             	mov    %r12d,%edi
  402258:	e8 83 ea ff ff       	callq  400ce0 <write@plt>
  40225d:	48 85 c0             	test   %rax,%rax
  402260:	7f 0f                	jg     402271 <rio_writen+0x3a>
  402262:	e8 29 ea ff ff       	callq  400c90 <__errno_location@plt>
  402267:	83 38 04             	cmpl   $0x4,(%rax)
  40226a:	75 15                	jne    402281 <rio_writen+0x4a>
  40226c:	b8 00 00 00 00       	mov    $0x0,%eax
  402271:	48 29 c3             	sub    %rax,%rbx
  402274:	48 01 c5             	add    %rax,%rbp
  402277:	48 85 db             	test   %rbx,%rbx
  40227a:	75 d3                	jne    40224f <rio_writen+0x18>
  40227c:	4c 89 e8             	mov    %r13,%rax
  40227f:	eb 07                	jmp    402288 <rio_writen+0x51>
  402281:	48 c7 c0 ff ff ff ff 	mov    $0xffffffffffffffff,%rax
  402288:	48 83 c4 08          	add    $0x8,%rsp
  40228c:	5b                   	pop    %rbx
  40228d:	5d                   	pop    %rbp
  40228e:	41 5c                	pop    %r12
  402290:	41 5d                	pop    %r13
  402292:	c3                   	retq   

0000000000402293 <rio_read>:
  402293:	41 55                	push   %r13
  402295:	41 54                	push   %r12
  402297:	55                   	push   %rbp
  402298:	53                   	push   %rbx
  402299:	48 83 ec 08          	sub    $0x8,%rsp
  40229d:	48 89 fb             	mov    %rdi,%rbx
  4022a0:	49 89 f5             	mov    %rsi,%r13
  4022a3:	49 89 d4             	mov    %rdx,%r12
  4022a6:	eb 2e                	jmp    4022d6 <rio_read+0x43>
  4022a8:	48 8d 6b 10          	lea    0x10(%rbx),%rbp
  4022ac:	8b 3b                	mov    (%rbx),%edi
  4022ae:	ba 00 20 00 00       	mov    $0x2000,%edx
  4022b3:	48 89 ee             	mov    %rbp,%rsi
  4022b6:	e8 85 ea ff ff       	callq  400d40 <read@plt>
  4022bb:	89 43 04             	mov    %eax,0x4(%rbx)
  4022be:	85 c0                	test   %eax,%eax
  4022c0:	79 0c                	jns    4022ce <rio_read+0x3b>
  4022c2:	e8 c9 e9 ff ff       	callq  400c90 <__errno_location@plt>
  4022c7:	83 38 04             	cmpl   $0x4,(%rax)
  4022ca:	74 0a                	je     4022d6 <rio_read+0x43>
  4022cc:	eb 37                	jmp    402305 <rio_read+0x72>
  4022ce:	85 c0                	test   %eax,%eax
  4022d0:	74 3c                	je     40230e <rio_read+0x7b>
  4022d2:	48 89 6b 08          	mov    %rbp,0x8(%rbx)
  4022d6:	8b 6b 04             	mov    0x4(%rbx),%ebp
  4022d9:	85 ed                	test   %ebp,%ebp
  4022db:	7e cb                	jle    4022a8 <rio_read+0x15>
  4022dd:	89 e8                	mov    %ebp,%eax
  4022df:	49 39 c4             	cmp    %rax,%r12
  4022e2:	77 03                	ja     4022e7 <rio_read+0x54>
  4022e4:	44 89 e5             	mov    %r12d,%ebp
  4022e7:	4c 63 e5             	movslq %ebp,%r12
  4022ea:	48 8b 73 08          	mov    0x8(%rbx),%rsi
  4022ee:	4c 89 e2             	mov    %r12,%rdx
  4022f1:	4c 89 ef             	mov    %r13,%rdi
  4022f4:	e8 a7 ea ff ff       	callq  400da0 <memcpy@plt>
  4022f9:	4c 01 63 08          	add    %r12,0x8(%rbx)
  4022fd:	29 6b 04             	sub    %ebp,0x4(%rbx)
  402300:	4c 89 e0             	mov    %r12,%rax
  402303:	eb 0e                	jmp    402313 <rio_read+0x80>
  402305:	48 c7 c0 ff ff ff ff 	mov    $0xffffffffffffffff,%rax
  40230c:	eb 05                	jmp    402313 <rio_read+0x80>
  40230e:	b8 00 00 00 00       	mov    $0x0,%eax
  402313:	48 83 c4 08          	add    $0x8,%rsp
  402317:	5b                   	pop    %rbx
  402318:	5d                   	pop    %rbp
  402319:	41 5c                	pop    %r12
  40231b:	41 5d                	pop    %r13
  40231d:	c3                   	retq   

000000000040231e <rio_readlineb>:
  40231e:	41 55                	push   %r13
  402320:	41 54                	push   %r12
  402322:	55                   	push   %rbp
  402323:	53                   	push   %rbx
  402324:	48 83 ec 18          	sub    $0x18,%rsp
  402328:	49 89 fd             	mov    %rdi,%r13
  40232b:	48 89 f5             	mov    %rsi,%rbp
  40232e:	49 89 d4             	mov    %rdx,%r12
  402331:	64 48 8b 04 25 28 00 	mov    %fs:0x28,%rax
  402338:	00 00 
  40233a:	48 89 44 24 08       	mov    %rax,0x8(%rsp)
  40233f:	31 c0                	xor    %eax,%eax
  402341:	bb 01 00 00 00       	mov    $0x1,%ebx
  402346:	eb 3f                	jmp    402387 <rio_readlineb+0x69>
  402348:	ba 01 00 00 00       	mov    $0x1,%edx
  40234d:	48 8d 74 24 07       	lea    0x7(%rsp),%rsi
  402352:	4c 89 ef             	mov    %r13,%rdi
  402355:	e8 39 ff ff ff       	callq  402293 <rio_read>
  40235a:	83 f8 01             	cmp    $0x1,%eax
  40235d:	75 15                	jne    402374 <rio_readlineb+0x56>
  40235f:	48 8d 45 01          	lea    0x1(%rbp),%rax
  402363:	0f b6 54 24 07       	movzbl 0x7(%rsp),%edx
  402368:	88 55 00             	mov    %dl,0x0(%rbp)
  40236b:	80 7c 24 07 0a       	cmpb   $0xa,0x7(%rsp)
  402370:	75 0e                	jne    402380 <rio_readlineb+0x62>
  402372:	eb 1a                	jmp    40238e <rio_readlineb+0x70>
  402374:	85 c0                	test   %eax,%eax
  402376:	75 22                	jne    40239a <rio_readlineb+0x7c>
  402378:	48 83 fb 01          	cmp    $0x1,%rbx
  40237c:	75 13                	jne    402391 <rio_readlineb+0x73>
  40237e:	eb 23                	jmp    4023a3 <rio_readlineb+0x85>
  402380:	48 83 c3 01          	add    $0x1,%rbx
  402384:	48 89 c5             	mov    %rax,%rbp
  402387:	4c 39 e3             	cmp    %r12,%rbx
  40238a:	72 bc                	jb     402348 <rio_readlineb+0x2a>
  40238c:	eb 03                	jmp    402391 <rio_readlineb+0x73>
  40238e:	48 89 c5             	mov    %rax,%rbp
  402391:	c6 45 00 00          	movb   $0x0,0x0(%rbp)
  402395:	48 89 d8             	mov    %rbx,%rax
  402398:	eb 0e                	jmp    4023a8 <rio_readlineb+0x8a>
  40239a:	48 c7 c0 ff ff ff ff 	mov    $0xffffffffffffffff,%rax
  4023a1:	eb 05                	jmp    4023a8 <rio_readlineb+0x8a>
  4023a3:	b8 00 00 00 00       	mov    $0x0,%eax
  4023a8:	48 8b 4c 24 08       	mov    0x8(%rsp),%rcx
  4023ad:	64 48 33 0c 25 28 00 	xor    %fs:0x28,%rcx
  4023b4:	00 00 
  4023b6:	74 05                	je     4023bd <rio_readlineb+0x9f>
  4023b8:	e8 33 e9 ff ff       	callq  400cf0 <__stack_chk_fail@plt>
  4023bd:	48 83 c4 18          	add    $0x18,%rsp
  4023c1:	5b                   	pop    %rbx
  4023c2:	5d                   	pop    %rbp
  4023c3:	41 5c                	pop    %r12
  4023c5:	41 5d                	pop    %r13
  4023c7:	c3                   	retq   

00000000004023c8 <urlencode>:
  4023c8:	41 54                	push   %r12
  4023ca:	55                   	push   %rbp
  4023cb:	53                   	push   %rbx
  4023cc:	48 83 ec 10          	sub    $0x10,%rsp
  4023d0:	48 89 fb             	mov    %rdi,%rbx
  4023d3:	48 89 f5             	mov    %rsi,%rbp
  4023d6:	64 48 8b 04 25 28 00 	mov    %fs:0x28,%rax
  4023dd:	00 00 
  4023df:	48 89 44 24 08       	mov    %rax,0x8(%rsp)
  4023e4:	31 c0                	xor    %eax,%eax
  4023e6:	48 c7 c1 ff ff ff ff 	mov    $0xffffffffffffffff,%rcx
  4023ed:	f2 ae                	repnz scas %es:(%rdi),%al
  4023ef:	48 f7 d1             	not    %rcx
  4023f2:	8d 41 ff             	lea    -0x1(%rcx),%eax
  4023f5:	e9 aa 00 00 00       	jmpq   4024a4 <urlencode+0xdc>
  4023fa:	44 0f b6 03          	movzbl (%rbx),%r8d
  4023fe:	41 80 f8 2a          	cmp    $0x2a,%r8b
  402402:	0f 94 c2             	sete   %dl
  402405:	41 80 f8 2d          	cmp    $0x2d,%r8b
  402409:	0f 94 c0             	sete   %al
  40240c:	08 c2                	or     %al,%dl
  40240e:	75 24                	jne    402434 <urlencode+0x6c>
  402410:	41 80 f8 2e          	cmp    $0x2e,%r8b
  402414:	74 1e                	je     402434 <urlencode+0x6c>
  402416:	41 80 f8 5f          	cmp    $0x5f,%r8b
  40241a:	74 18                	je     402434 <urlencode+0x6c>
  40241c:	41 8d 40 d0          	lea    -0x30(%r8),%eax
  402420:	3c 09                	cmp    $0x9,%al
  402422:	76 10                	jbe    402434 <urlencode+0x6c>
  402424:	41 8d 40 bf          	lea    -0x41(%r8),%eax
  402428:	3c 19                	cmp    $0x19,%al
  40242a:	76 08                	jbe    402434 <urlencode+0x6c>
  40242c:	41 8d 40 9f          	lea    -0x61(%r8),%eax
  402430:	3c 19                	cmp    $0x19,%al
  402432:	77 0a                	ja     40243e <urlencode+0x76>
  402434:	44 88 45 00          	mov    %r8b,0x0(%rbp)
  402438:	48 8d 6d 01          	lea    0x1(%rbp),%rbp
  40243c:	eb 5f                	jmp    40249d <urlencode+0xd5>
  40243e:	41 80 f8 20          	cmp    $0x20,%r8b
  402442:	75 0a                	jne    40244e <urlencode+0x86>
  402444:	c6 45 00 2b          	movb   $0x2b,0x0(%rbp)
  402448:	48 8d 6d 01          	lea    0x1(%rbp),%rbp
  40244c:	eb 4f                	jmp    40249d <urlencode+0xd5>
  40244e:	41 8d 40 e0          	lea    -0x20(%r8),%eax
  402452:	3c 5f                	cmp    $0x5f,%al
  402454:	0f 96 c2             	setbe  %dl
  402457:	41 80 f8 09          	cmp    $0x9,%r8b
  40245b:	0f 94 c0             	sete   %al
  40245e:	08 c2                	or     %al,%dl
  402460:	74 50                	je     4024b2 <urlencode+0xea>
  402462:	45 0f b6 c0          	movzbl %r8b,%r8d
  402466:	b9 a8 38 40 00       	mov    $0x4038a8,%ecx
  40246b:	ba 08 00 00 00       	mov    $0x8,%edx
  402470:	be 01 00 00 00       	mov    $0x1,%esi
  402475:	48 89 e7             	mov    %rsp,%rdi
  402478:	b8 00 00 00 00       	mov    $0x0,%eax
  40247d:	e8 fe e9 ff ff       	callq  400e80 <__sprintf_chk@plt>
  402482:	0f b6 04 24          	movzbl (%rsp),%eax
  402486:	88 45 00             	mov    %al,0x0(%rbp)
  402489:	0f b6 44 24 01       	movzbl 0x1(%rsp),%eax
  40248e:	88 45 01             	mov    %al,0x1(%rbp)
  402491:	0f b6 44 24 02       	movzbl 0x2(%rsp),%eax
  402496:	88 45 02             	mov    %al,0x2(%rbp)
  402499:	48 8d 6d 03          	lea    0x3(%rbp),%rbp
  40249d:	48 83 c3 01          	add    $0x1,%rbx
  4024a1:	44 89 e0             	mov    %r12d,%eax
  4024a4:	44 8d 60 ff          	lea    -0x1(%rax),%r12d
  4024a8:	85 c0                	test   %eax,%eax
  4024aa:	0f 85 4a ff ff ff    	jne    4023fa <urlencode+0x32>
  4024b0:	eb 05                	jmp    4024b7 <urlencode+0xef>
  4024b2:	b8 ff ff ff ff       	mov    $0xffffffff,%eax
  4024b7:	48 8b 74 24 08       	mov    0x8(%rsp),%rsi
  4024bc:	64 48 33 34 25 28 00 	xor    %fs:0x28,%rsi
  4024c3:	00 00 
  4024c5:	74 05                	je     4024cc <urlencode+0x104>
  4024c7:	e8 24 e8 ff ff       	callq  400cf0 <__stack_chk_fail@plt>
  4024cc:	48 83 c4 10          	add    $0x10,%rsp
  4024d0:	5b                   	pop    %rbx
  4024d1:	5d                   	pop    %rbp
  4024d2:	41 5c                	pop    %r12
  4024d4:	c3                   	retq   

00000000004024d5 <submitr>:
  4024d5:	41 57                	push   %r15
  4024d7:	41 56                	push   %r14
  4024d9:	41 55                	push   %r13
  4024db:	41 54                	push   %r12
  4024dd:	55                   	push   %rbp
  4024de:	53                   	push   %rbx
  4024df:	48 81 ec 58 a0 00 00 	sub    $0xa058,%rsp
  4024e6:	49 89 fc             	mov    %rdi,%r12
  4024e9:	89 74 24 04          	mov    %esi,0x4(%rsp)
  4024ed:	49 89 d7             	mov    %rdx,%r15
  4024f0:	49 89 ce             	mov    %rcx,%r14
  4024f3:	4c 89 44 24 08       	mov    %r8,0x8(%rsp)
  4024f8:	4d 89 cd             	mov    %r9,%r13
  4024fb:	48 8b 9c 24 90 a0 00 	mov    0xa090(%rsp),%rbx
  402502:	00 
  402503:	64 48 8b 04 25 28 00 	mov    %fs:0x28,%rax
  40250a:	00 00 
  40250c:	48 89 84 24 48 a0 00 	mov    %rax,0xa048(%rsp)
  402513:	00 
  402514:	31 c0                	xor    %eax,%eax
  402516:	c7 44 24 1c 00 00 00 	movl   $0x0,0x1c(%rsp)
  40251d:	00 
  40251e:	ba 00 00 00 00       	mov    $0x0,%edx
  402523:	be 01 00 00 00       	mov    $0x1,%esi
  402528:	bf 02 00 00 00       	mov    $0x2,%edi
  40252d:	e8 5e e9 ff ff       	callq  400e90 <socket@plt>
  402532:	85 c0                	test   %eax,%eax
  402534:	79 4e                	jns    402584 <submitr+0xaf>
  402536:	48 b8 45 72 72 6f 72 	movabs $0x43203a726f727245,%rax
  40253d:	3a 20 43 
  402540:	48 89 03             	mov    %rax,(%rbx)
  402543:	48 b8 6c 69 65 6e 74 	movabs $0x6e7520746e65696c,%rax
  40254a:	20 75 6e 
  40254d:	48 89 43 08          	mov    %rax,0x8(%rbx)
  402551:	48 b8 61 62 6c 65 20 	movabs $0x206f7420656c6261,%rax
  402558:	74 6f 20 
  40255b:	48 89 43 10          	mov    %rax,0x10(%rbx)
  40255f:	48 b8 63 72 65 61 74 	movabs $0x7320657461657263,%rax
  402566:	65 20 73 
  402569:	48 89 43 18          	mov    %rax,0x18(%rbx)
  40256d:	c7 43 20 6f 63 6b 65 	movl   $0x656b636f,0x20(%rbx)
  402574:	66 c7 43 24 74 00    	movw   $0x74,0x24(%rbx)
  40257a:	b8 ff ff ff ff       	mov    $0xffffffff,%eax
  40257f:	e9 97 06 00 00       	jmpq   402c1b <submitr+0x746>
  402584:	89 c5                	mov    %eax,%ebp
  402586:	4c 89 e7             	mov    %r12,%rdi
  402589:	e8 e2 e7 ff ff       	callq  400d70 <gethostbyname@plt>
  40258e:	48 85 c0             	test   %rax,%rax
  402591:	75 67                	jne    4025fa <submitr+0x125>
  402593:	48 b8 45 72 72 6f 72 	movabs $0x44203a726f727245,%rax
  40259a:	3a 20 44 
  40259d:	48 89 03             	mov    %rax,(%rbx)
  4025a0:	48 b8 4e 53 20 69 73 	movabs $0x6e7520736920534e,%rax
  4025a7:	20 75 6e 
  4025aa:	48 89 43 08          	mov    %rax,0x8(%rbx)
  4025ae:	48 b8 61 62 6c 65 20 	movabs $0x206f7420656c6261,%rax
  4025b5:	74 6f 20 
  4025b8:	48 89 43 10          	mov    %rax,0x10(%rbx)
  4025bc:	48 b8 72 65 73 6f 6c 	movabs $0x2065766c6f736572,%rax
  4025c3:	76 65 20 
  4025c6:	48 89 43 18          	mov    %rax,0x18(%rbx)
  4025ca:	48 b8 73 65 72 76 65 	movabs $0x6120726576726573,%rax
  4025d1:	72 20 61 
  4025d4:	48 89 43 20          	mov    %rax,0x20(%rbx)
  4025d8:	c7 43 28 64 64 72 65 	movl   $0x65726464,0x28(%rbx)
  4025df:	66 c7 43 2c 73 73    	movw   $0x7373,0x2c(%rbx)
  4025e5:	c6 43 2e 00          	movb   $0x0,0x2e(%rbx)
  4025e9:	89 ef                	mov    %ebp,%edi
  4025eb:	e8 40 e7 ff ff       	callq  400d30 <close@plt>
  4025f0:	b8 ff ff ff ff       	mov    $0xffffffff,%eax
  4025f5:	e9 21 06 00 00       	jmpq   402c1b <submitr+0x746>
  4025fa:	48 c7 44 24 20 00 00 	movq   $0x0,0x20(%rsp)
  402601:	00 00 
  402603:	48 c7 44 24 28 00 00 	movq   $0x0,0x28(%rsp)
  40260a:	00 00 
  40260c:	66 c7 44 24 20 02 00 	movw   $0x2,0x20(%rsp)
  402613:	48 63 50 14          	movslq 0x14(%rax),%rdx
  402617:	48 8b 40 18          	mov    0x18(%rax),%rax
  40261b:	48 8b 30             	mov    (%rax),%rsi
  40261e:	48 8d 7c 24 24       	lea    0x24(%rsp),%rdi
  402623:	b9 0c 00 00 00       	mov    $0xc,%ecx
  402628:	e8 53 e7 ff ff       	callq  400d80 <__memmove_chk@plt>
  40262d:	0f b7 44 24 04       	movzwl 0x4(%rsp),%eax
  402632:	66 c1 c8 08          	ror    $0x8,%ax
  402636:	66 89 44 24 22       	mov    %ax,0x22(%rsp)
  40263b:	ba 10 00 00 00       	mov    $0x10,%edx
  402640:	48 8d 74 24 20       	lea    0x20(%rsp),%rsi
  402645:	89 ef                	mov    %ebp,%edi
  402647:	e8 14 e8 ff ff       	callq  400e60 <connect@plt>
  40264c:	85 c0                	test   %eax,%eax
  40264e:	79 59                	jns    4026a9 <submitr+0x1d4>
  402650:	48 b8 45 72 72 6f 72 	movabs $0x55203a726f727245,%rax
  402657:	3a 20 55 
  40265a:	48 89 03             	mov    %rax,(%rbx)
  40265d:	48 b8 6e 61 62 6c 65 	movabs $0x6f7420656c62616e,%rax
  402664:	20 74 6f 
  402667:	48 89 43 08          	mov    %rax,0x8(%rbx)
  40266b:	48 b8 20 63 6f 6e 6e 	movabs $0x7463656e6e6f6320,%rax
  402672:	65 63 74 
  402675:	48 89 43 10          	mov    %rax,0x10(%rbx)
  402679:	48 b8 20 74 6f 20 74 	movabs $0x20656874206f7420,%rax
  402680:	68 65 20 
  402683:	48 89 43 18          	mov    %rax,0x18(%rbx)
  402687:	c7 43 20 73 65 72 76 	movl   $0x76726573,0x20(%rbx)
  40268e:	66 c7 43 24 65 72    	movw   $0x7265,0x24(%rbx)
  402694:	c6 43 26 00          	movb   $0x0,0x26(%rbx)
  402698:	89 ef                	mov    %ebp,%edi
  40269a:	e8 91 e6 ff ff       	callq  400d30 <close@plt>
  40269f:	b8 ff ff ff ff       	mov    $0xffffffff,%eax
  4026a4:	e9 72 05 00 00       	jmpq   402c1b <submitr+0x746>
  4026a9:	48 c7 c6 ff ff ff ff 	mov    $0xffffffffffffffff,%rsi
  4026b0:	b8 00 00 00 00       	mov    $0x0,%eax
  4026b5:	48 89 f1             	mov    %rsi,%rcx
  4026b8:	4c 89 ef             	mov    %r13,%rdi
  4026bb:	f2 ae                	repnz scas %es:(%rdi),%al
  4026bd:	48 f7 d1             	not    %rcx
  4026c0:	48 89 ca             	mov    %rcx,%rdx
  4026c3:	48 89 f1             	mov    %rsi,%rcx
  4026c6:	4c 89 ff             	mov    %r15,%rdi
  4026c9:	f2 ae                	repnz scas %es:(%rdi),%al
  4026cb:	48 f7 d1             	not    %rcx
  4026ce:	49 89 c8             	mov    %rcx,%r8
  4026d1:	48 89 f1             	mov    %rsi,%rcx
  4026d4:	4c 89 f7             	mov    %r14,%rdi
  4026d7:	f2 ae                	repnz scas %es:(%rdi),%al
  4026d9:	48 f7 d1             	not    %rcx
  4026dc:	4d 8d 44 08 fe       	lea    -0x2(%r8,%rcx,1),%r8
  4026e1:	48 89 f1             	mov    %rsi,%rcx
  4026e4:	48 8b 7c 24 08       	mov    0x8(%rsp),%rdi
  4026e9:	f2 ae                	repnz scas %es:(%rdi),%al
  4026eb:	48 89 c8             	mov    %rcx,%rax
  4026ee:	48 f7 d0             	not    %rax
  4026f1:	49 8d 4c 00 ff       	lea    -0x1(%r8,%rax,1),%rcx
  4026f6:	48 8d 44 52 fd       	lea    -0x3(%rdx,%rdx,2),%rax
  4026fb:	48 8d 84 01 80 00 00 	lea    0x80(%rcx,%rax,1),%rax
  402702:	00 
  402703:	48 3d 00 20 00 00    	cmp    $0x2000,%rax
  402709:	76 72                	jbe    40277d <submitr+0x2a8>
  40270b:	48 b8 45 72 72 6f 72 	movabs $0x52203a726f727245,%rax
  402712:	3a 20 52 
  402715:	48 89 03             	mov    %rax,(%rbx)
  402718:	48 b8 65 73 75 6c 74 	movabs $0x747320746c757365,%rax
  40271f:	20 73 74 
  402722:	48 89 43 08          	mov    %rax,0x8(%rbx)
  402726:	48 b8 72 69 6e 67 20 	movabs $0x6f6f7420676e6972,%rax
  40272d:	74 6f 6f 
  402730:	48 89 43 10          	mov    %rax,0x10(%rbx)
  402734:	48 b8 20 6c 61 72 67 	movabs $0x202e656772616c20,%rax
  40273b:	65 2e 20 
  40273e:	48 89 43 18          	mov    %rax,0x18(%rbx)
  402742:	48 b8 49 6e 63 72 65 	movabs $0x6573616572636e49,%rax
  402749:	61 73 65 
  40274c:	48 89 43 20          	mov    %rax,0x20(%rbx)
  402750:	48 b8 20 53 55 42 4d 	movabs $0x5254494d42555320,%rax
  402757:	49 54 52 
  40275a:	48 89 43 28          	mov    %rax,0x28(%rbx)
  40275e:	48 b8 5f 4d 41 58 42 	movabs $0x46554258414d5f,%rax
  402765:	55 46 00 
  402768:	48 89 43 30          	mov    %rax,0x30(%rbx)
  40276c:	89 ef                	mov    %ebp,%edi
  40276e:	e8 bd e5 ff ff       	callq  400d30 <close@plt>
  402773:	b8 ff ff ff ff       	mov    $0xffffffff,%eax
  402778:	e9 9e 04 00 00       	jmpq   402c1b <submitr+0x746>
  40277d:	48 8d b4 24 40 40 00 	lea    0x4040(%rsp),%rsi
  402784:	00 
  402785:	b9 00 04 00 00       	mov    $0x400,%ecx
  40278a:	b8 00 00 00 00       	mov    $0x0,%eax
  40278f:	48 89 f7             	mov    %rsi,%rdi
  402792:	f3 48 ab             	rep stos %rax,%es:(%rdi)
  402795:	4c 89 ef             	mov    %r13,%rdi
  402798:	e8 2b fc ff ff       	callq  4023c8 <urlencode>
  40279d:	85 c0                	test   %eax,%eax
  40279f:	0f 89 8a 00 00 00    	jns    40282f <submitr+0x35a>
  4027a5:	48 b8 45 72 72 6f 72 	movabs $0x52203a726f727245,%rax
  4027ac:	3a 20 52 
  4027af:	48 89 03             	mov    %rax,(%rbx)
  4027b2:	48 b8 65 73 75 6c 74 	movabs $0x747320746c757365,%rax
  4027b9:	20 73 74 
  4027bc:	48 89 43 08          	mov    %rax,0x8(%rbx)
  4027c0:	48 b8 72 69 6e 67 20 	movabs $0x6e6f6320676e6972,%rax
  4027c7:	63 6f 6e 
  4027ca:	48 89 43 10          	mov    %rax,0x10(%rbx)
  4027ce:	48 b8 74 61 69 6e 73 	movabs $0x6e6120736e696174,%rax
  4027d5:	20 61 6e 
  4027d8:	48 89 43 18          	mov    %rax,0x18(%rbx)
  4027dc:	48 b8 20 69 6c 6c 65 	movabs $0x6c6167656c6c6920,%rax
  4027e3:	67 61 6c 
  4027e6:	48 89 43 20          	mov    %rax,0x20(%rbx)
  4027ea:	48 b8 20 6f 72 20 75 	movabs $0x72706e7520726f20,%rax
  4027f1:	6e 70 72 
  4027f4:	48 89 43 28          	mov    %rax,0x28(%rbx)
  4027f8:	48 b8 69 6e 74 61 62 	movabs $0x20656c6261746e69,%rax
  4027ff:	6c 65 20 
  402802:	48 89 43 30          	mov    %rax,0x30(%rbx)
  402806:	48 b8 63 68 61 72 61 	movabs $0x6574636172616863,%rax
  40280d:	63 74 65 
  402810:	48 89 43 38          	mov    %rax,0x38(%rbx)
  402814:	66 c7 43 40 72 2e    	movw   $0x2e72,0x40(%rbx)
  40281a:	c6 43 42 00          	movb   $0x0,0x42(%rbx)
  40281e:	89 ef                	mov    %ebp,%edi
  402820:	e8 0b e5 ff ff       	callq  400d30 <close@plt>
  402825:	b8 ff ff ff ff       	mov    $0xffffffff,%eax
  40282a:	e9 ec 03 00 00       	jmpq   402c1b <submitr+0x746>
  40282f:	4c 8d ac 24 40 20 00 	lea    0x2040(%rsp),%r13
  402836:	00 
  402837:	41 54                	push   %r12
  402839:	48 8d 84 24 48 40 00 	lea    0x4048(%rsp),%rax
  402840:	00 
  402841:	50                   	push   %rax
  402842:	4d 89 f9             	mov    %r15,%r9
  402845:	4d 89 f0             	mov    %r14,%r8
  402848:	b9 38 38 40 00       	mov    $0x403838,%ecx
  40284d:	ba 00 20 00 00       	mov    $0x2000,%edx
  402852:	be 01 00 00 00       	mov    $0x1,%esi
  402857:	4c 89 ef             	mov    %r13,%rdi
  40285a:	b8 00 00 00 00       	mov    $0x0,%eax
  40285f:	e8 1c e6 ff ff       	callq  400e80 <__sprintf_chk@plt>
  402864:	b8 00 00 00 00       	mov    $0x0,%eax
  402869:	48 c7 c1 ff ff ff ff 	mov    $0xffffffffffffffff,%rcx
  402870:	4c 89 ef             	mov    %r13,%rdi
  402873:	f2 ae                	repnz scas %es:(%rdi),%al
  402875:	48 f7 d1             	not    %rcx
  402878:	48 8d 51 ff          	lea    -0x1(%rcx),%rdx
  40287c:	4c 89 ee             	mov    %r13,%rsi
  40287f:	89 ef                	mov    %ebp,%edi
  402881:	e8 b1 f9 ff ff       	callq  402237 <rio_writen>
  402886:	48 83 c4 10          	add    $0x10,%rsp
  40288a:	48 85 c0             	test   %rax,%rax
  40288d:	79 6e                	jns    4028fd <submitr+0x428>
  40288f:	48 b8 45 72 72 6f 72 	movabs $0x43203a726f727245,%rax
  402896:	3a 20 43 
  402899:	48 89 03             	mov    %rax,(%rbx)
  40289c:	48 b8 6c 69 65 6e 74 	movabs $0x6e7520746e65696c,%rax
  4028a3:	20 75 6e 
  4028a6:	48 89 43 08          	mov    %rax,0x8(%rbx)
  4028aa:	48 b8 61 62 6c 65 20 	movabs $0x206f7420656c6261,%rax
  4028b1:	74 6f 20 
  4028b4:	48 89 43 10          	mov    %rax,0x10(%rbx)
  4028b8:	48 b8 77 72 69 74 65 	movabs $0x6f74206574697277,%rax
  4028bf:	20 74 6f 
  4028c2:	48 89 43 18          	mov    %rax,0x18(%rbx)
  4028c6:	48 b8 20 74 68 65 20 	movabs $0x7365722065687420,%rax
  4028cd:	72 65 73 
  4028d0:	48 89 43 20          	mov    %rax,0x20(%rbx)
  4028d4:	48 b8 75 6c 74 20 73 	movabs $0x7672657320746c75,%rax
  4028db:	65 72 76 
  4028de:	48 89 43 28          	mov    %rax,0x28(%rbx)
  4028e2:	66 c7 43 30 65 72    	movw   $0x7265,0x30(%rbx)
  4028e8:	c6 43 32 00          	movb   $0x0,0x32(%rbx)
  4028ec:	89 ef                	mov    %ebp,%edi
  4028ee:	e8 3d e4 ff ff       	callq  400d30 <close@plt>
  4028f3:	b8 ff ff ff ff       	mov    $0xffffffff,%eax
  4028f8:	e9 1e 03 00 00       	jmpq   402c1b <submitr+0x746>
  4028fd:	89 ee                	mov    %ebp,%esi
  4028ff:	48 8d 7c 24 30       	lea    0x30(%rsp),%rdi
  402904:	e8 ee f8 ff ff       	callq  4021f7 <rio_readinitb>
  402909:	ba 00 20 00 00       	mov    $0x2000,%edx
  40290e:	48 8d b4 24 40 20 00 	lea    0x2040(%rsp),%rsi
  402915:	00 
  402916:	48 8d 7c 24 30       	lea    0x30(%rsp),%rdi
  40291b:	e8 fe f9 ff ff       	callq  40231e <rio_readlineb>
  402920:	48 85 c0             	test   %rax,%rax
  402923:	7f 7d                	jg     4029a2 <submitr+0x4cd>
  402925:	48 b8 45 72 72 6f 72 	movabs $0x43203a726f727245,%rax
  40292c:	3a 20 43 
  40292f:	48 89 03             	mov    %rax,(%rbx)
  402932:	48 b8 6c 69 65 6e 74 	movabs $0x6e7520746e65696c,%rax
  402939:	20 75 6e 
  40293c:	48 89 43 08          	mov    %rax,0x8(%rbx)
  402940:	48 b8 61 62 6c 65 20 	movabs $0x206f7420656c6261,%rax
  402947:	74 6f 20 
  40294a:	48 89 43 10          	mov    %rax,0x10(%rbx)
  40294e:	48 b8 72 65 61 64 20 	movabs $0x7269662064616572,%rax
  402955:	66 69 72 
  402958:	48 89 43 18          	mov    %rax,0x18(%rbx)
  40295c:	48 b8 73 74 20 68 65 	movabs $0x6564616568207473,%rax
  402963:	61 64 65 
  402966:	48 89 43 20          	mov    %rax,0x20(%rbx)
  40296a:	48 b8 72 20 66 72 6f 	movabs $0x72206d6f72662072,%rax
  402971:	6d 20 72 
  402974:	48 89 43 28          	mov    %rax,0x28(%rbx)
  402978:	48 b8 65 73 75 6c 74 	movabs $0x657320746c757365,%rax
  40297f:	20 73 65 
  402982:	48 89 43 30          	mov    %rax,0x30(%rbx)
  402986:	c7 43 38 72 76 65 72 	movl   $0x72657672,0x38(%rbx)
  40298d:	c6 43 3c 00          	movb   $0x0,0x3c(%rbx)
  402991:	89 ef                	mov    %ebp,%edi
  402993:	e8 98 e3 ff ff       	callq  400d30 <close@plt>
  402998:	b8 ff ff ff ff       	mov    $0xffffffff,%eax
  40299d:	e9 79 02 00 00       	jmpq   402c1b <submitr+0x746>
  4029a2:	4c 8d 84 24 40 80 00 	lea    0x8040(%rsp),%r8
  4029a9:	00 
  4029aa:	48 8d 4c 24 1c       	lea    0x1c(%rsp),%rcx
  4029af:	48 8d 94 24 40 60 00 	lea    0x6040(%rsp),%rdx
  4029b6:	00 
  4029b7:	be af 38 40 00       	mov    $0x4038af,%esi
  4029bc:	48 8d bc 24 40 20 00 	lea    0x2040(%rsp),%rdi
  4029c3:	00 
  4029c4:	b8 00 00 00 00       	mov    $0x0,%eax
  4029c9:	e8 12 e4 ff ff       	callq  400de0 <__isoc99_sscanf@plt>
  4029ce:	e9 95 00 00 00       	jmpq   402a68 <submitr+0x593>
  4029d3:	ba 00 20 00 00       	mov    $0x2000,%edx
  4029d8:	48 8d b4 24 40 20 00 	lea    0x2040(%rsp),%rsi
  4029df:	00 
  4029e0:	48 8d 7c 24 30       	lea    0x30(%rsp),%rdi
  4029e5:	e8 34 f9 ff ff       	callq  40231e <rio_readlineb>
  4029ea:	48 85 c0             	test   %rax,%rax
  4029ed:	7f 79                	jg     402a68 <submitr+0x593>
  4029ef:	48 b8 45 72 72 6f 72 	movabs $0x43203a726f727245,%rax
  4029f6:	3a 20 43 
  4029f9:	48 89 03             	mov    %rax,(%rbx)
  4029fc:	48 b8 6c 69 65 6e 74 	movabs $0x6e7520746e65696c,%rax
  402a03:	20 75 6e 
  402a06:	48 89 43 08          	mov    %rax,0x8(%rbx)
  402a0a:	48 b8 61 62 6c 65 20 	movabs $0x206f7420656c6261,%rax
  402a11:	74 6f 20 
  402a14:	48 89 43 10          	mov    %rax,0x10(%rbx)
  402a18:	48 b8 72 65 61 64 20 	movabs $0x6165682064616572,%rax
  402a1f:	68 65 61 
  402a22:	48 89 43 18          	mov    %rax,0x18(%rbx)
  402a26:	48 b8 64 65 72 73 20 	movabs $0x6f72662073726564,%rax
  402a2d:	66 72 6f 
  402a30:	48 89 43 20          	mov    %rax,0x20(%rbx)
  402a34:	48 b8 6d 20 74 68 65 	movabs $0x657220656874206d,%rax
  402a3b:	20 72 65 
  402a3e:	48 89 43 28          	mov    %rax,0x28(%rbx)
  402a42:	48 b8 73 75 6c 74 20 	movabs $0x72657320746c7573,%rax
  402a49:	73 65 72 
  402a4c:	48 89 43 30          	mov    %rax,0x30(%rbx)
  402a50:	c7 43 38 76 65 72 00 	movl   $0x726576,0x38(%rbx)
  402a57:	89 ef                	mov    %ebp,%edi
  402a59:	e8 d2 e2 ff ff       	callq  400d30 <close@plt>
  402a5e:	b8 ff ff ff ff       	mov    $0xffffffff,%eax
  402a63:	e9 b3 01 00 00       	jmpq   402c1b <submitr+0x746>
  402a68:	0f b6 94 24 40 20 00 	movzbl 0x2040(%rsp),%edx
  402a6f:	00 
  402a70:	b8 0d 00 00 00       	mov    $0xd,%eax
  402a75:	29 d0                	sub    %edx,%eax
  402a77:	75 1b                	jne    402a94 <submitr+0x5bf>
  402a79:	0f b6 94 24 41 20 00 	movzbl 0x2041(%rsp),%edx
  402a80:	00 
  402a81:	b8 0a 00 00 00       	mov    $0xa,%eax
  402a86:	29 d0                	sub    %edx,%eax
  402a88:	75 0a                	jne    402a94 <submitr+0x5bf>
  402a8a:	0f b6 84 24 42 20 00 	movzbl 0x2042(%rsp),%eax
  402a91:	00 
  402a92:	f7 d8                	neg    %eax
  402a94:	85 c0                	test   %eax,%eax
  402a96:	0f 85 37 ff ff ff    	jne    4029d3 <submitr+0x4fe>
  402a9c:	ba 00 20 00 00       	mov    $0x2000,%edx
  402aa1:	48 8d b4 24 40 20 00 	lea    0x2040(%rsp),%rsi
  402aa8:	00 
  402aa9:	48 8d 7c 24 30       	lea    0x30(%rsp),%rdi
  402aae:	e8 6b f8 ff ff       	callq  40231e <rio_readlineb>
  402ab3:	48 85 c0             	test   %rax,%rax
  402ab6:	0f 8f 83 00 00 00    	jg     402b3f <submitr+0x66a>
  402abc:	48 b8 45 72 72 6f 72 	movabs $0x43203a726f727245,%rax
  402ac3:	3a 20 43 
  402ac6:	48 89 03             	mov    %rax,(%rbx)
  402ac9:	48 b8 6c 69 65 6e 74 	movabs $0x6e7520746e65696c,%rax
  402ad0:	20 75 6e 
  402ad3:	48 89 43 08          	mov    %rax,0x8(%rbx)
  402ad7:	48 b8 61 62 6c 65 20 	movabs $0x206f7420656c6261,%rax
  402ade:	74 6f 20 
  402ae1:	48 89 43 10          	mov    %rax,0x10(%rbx)
  402ae5:	48 b8 72 65 61 64 20 	movabs $0x6174732064616572,%rax
  402aec:	73 74 61 
  402aef:	48 89 43 18          	mov    %rax,0x18(%rbx)
  402af3:	48 b8 74 75 73 20 6d 	movabs $0x7373656d20737574,%rax
  402afa:	65 73 73 
  402afd:	48 89 43 20          	mov    %rax,0x20(%rbx)
  402b01:	48 b8 61 67 65 20 66 	movabs $0x6d6f726620656761,%rax
  402b08:	72 6f 6d 
  402b0b:	48 89 43 28          	mov    %rax,0x28(%rbx)
  402b0f:	48 b8 20 72 65 73 75 	movabs $0x20746c7573657220,%rax
  402b16:	6c 74 20 
  402b19:	48 89 43 30          	mov    %rax,0x30(%rbx)
  402b1d:	c7 43 38 73 65 72 76 	movl   $0x76726573,0x38(%rbx)
  402b24:	66 c7 43 3c 65 72    	movw   $0x7265,0x3c(%rbx)
  402b2a:	c6 43 3e 00          	movb   $0x0,0x3e(%rbx)
  402b2e:	89 ef                	mov    %ebp,%edi
  402b30:	e8 fb e1 ff ff       	callq  400d30 <close@plt>
  402b35:	b8 ff ff ff ff       	mov    $0xffffffff,%eax
  402b3a:	e9 dc 00 00 00       	jmpq   402c1b <submitr+0x746>
  402b3f:	44 8b 44 24 1c       	mov    0x1c(%rsp),%r8d
  402b44:	41 81 f8 c8 00 00 00 	cmp    $0xc8,%r8d
  402b4b:	74 37                	je     402b84 <submitr+0x6af>
  402b4d:	4c 8d 8c 24 40 80 00 	lea    0x8040(%rsp),%r9
  402b54:	00 
  402b55:	b9 78 38 40 00       	mov    $0x403878,%ecx
  402b5a:	48 c7 c2 ff ff ff ff 	mov    $0xffffffffffffffff,%rdx
  402b61:	be 01 00 00 00       	mov    $0x1,%esi
  402b66:	48 89 df             	mov    %rbx,%rdi
  402b69:	b8 00 00 00 00       	mov    $0x0,%eax
  402b6e:	e8 0d e3 ff ff       	callq  400e80 <__sprintf_chk@plt>
  402b73:	89 ef                	mov    %ebp,%edi
  402b75:	e8 b6 e1 ff ff       	callq  400d30 <close@plt>
  402b7a:	b8 ff ff ff ff       	mov    $0xffffffff,%eax
  402b7f:	e9 97 00 00 00       	jmpq   402c1b <submitr+0x746>
  402b84:	48 8d b4 24 40 20 00 	lea    0x2040(%rsp),%rsi
  402b8b:	00 
  402b8c:	48 89 df             	mov    %rbx,%rdi
  402b8f:	e8 2c e1 ff ff       	callq  400cc0 <strcpy@plt>
  402b94:	89 ef                	mov    %ebp,%edi
  402b96:	e8 95 e1 ff ff       	callq  400d30 <close@plt>
  402b9b:	0f b6 03             	movzbl (%rbx),%eax
  402b9e:	ba 4f 00 00 00       	mov    $0x4f,%edx
  402ba3:	29 c2                	sub    %eax,%edx
  402ba5:	75 22                	jne    402bc9 <submitr+0x6f4>
  402ba7:	0f b6 4b 01          	movzbl 0x1(%rbx),%ecx
  402bab:	b8 4b 00 00 00       	mov    $0x4b,%eax
  402bb0:	29 c8                	sub    %ecx,%eax
  402bb2:	75 17                	jne    402bcb <submitr+0x6f6>
  402bb4:	0f b6 4b 02          	movzbl 0x2(%rbx),%ecx
  402bb8:	b8 0a 00 00 00       	mov    $0xa,%eax
  402bbd:	29 c8                	sub    %ecx,%eax
  402bbf:	75 0a                	jne    402bcb <submitr+0x6f6>
  402bc1:	0f b6 43 03          	movzbl 0x3(%rbx),%eax
  402bc5:	f7 d8                	neg    %eax
  402bc7:	eb 02                	jmp    402bcb <submitr+0x6f6>
  402bc9:	89 d0                	mov    %edx,%eax
  402bcb:	85 c0                	test   %eax,%eax
  402bcd:	74 40                	je     402c0f <submitr+0x73a>
  402bcf:	bf c0 38 40 00       	mov    $0x4038c0,%edi
  402bd4:	b9 05 00 00 00       	mov    $0x5,%ecx
  402bd9:	48 89 de             	mov    %rbx,%rsi
  402bdc:	f3 a6                	repz cmpsb %es:(%rdi),%ds:(%rsi)
  402bde:	0f 97 c0             	seta   %al
  402be1:	0f 92 c1             	setb   %cl
  402be4:	29 c8                	sub    %ecx,%eax
  402be6:	0f be c0             	movsbl %al,%eax
  402be9:	85 c0                	test   %eax,%eax
  402beb:	74 2e                	je     402c1b <submitr+0x746>
  402bed:	85 d2                	test   %edx,%edx
  402bef:	75 13                	jne    402c04 <submitr+0x72f>
  402bf1:	0f b6 43 01          	movzbl 0x1(%rbx),%eax
  402bf5:	ba 4b 00 00 00       	mov    $0x4b,%edx
  402bfa:	29 c2                	sub    %eax,%edx
  402bfc:	75 06                	jne    402c04 <submitr+0x72f>
  402bfe:	0f b6 53 02          	movzbl 0x2(%rbx),%edx
  402c02:	f7 da                	neg    %edx
  402c04:	85 d2                	test   %edx,%edx
  402c06:	75 0e                	jne    402c16 <submitr+0x741>
  402c08:	b8 00 00 00 00       	mov    $0x0,%eax
  402c0d:	eb 0c                	jmp    402c1b <submitr+0x746>
  402c0f:	b8 00 00 00 00       	mov    $0x0,%eax
  402c14:	eb 05                	jmp    402c1b <submitr+0x746>
  402c16:	b8 ff ff ff ff       	mov    $0xffffffff,%eax
  402c1b:	48 8b 9c 24 48 a0 00 	mov    0xa048(%rsp),%rbx
  402c22:	00 
  402c23:	64 48 33 1c 25 28 00 	xor    %fs:0x28,%rbx
  402c2a:	00 00 
  402c2c:	74 05                	je     402c33 <submitr+0x75e>
  402c2e:	e8 bd e0 ff ff       	callq  400cf0 <__stack_chk_fail@plt>
  402c33:	48 81 c4 58 a0 00 00 	add    $0xa058,%rsp
  402c3a:	5b                   	pop    %rbx
  402c3b:	5d                   	pop    %rbp
  402c3c:	41 5c                	pop    %r12
  402c3e:	41 5d                	pop    %r13
  402c40:	41 5e                	pop    %r14
  402c42:	41 5f                	pop    %r15
  402c44:	c3                   	retq   

0000000000402c45 <init_timeout>:
  402c45:	85 ff                	test   %edi,%edi
  402c47:	74 23                	je     402c6c <init_timeout+0x27>
  402c49:	53                   	push   %rbx
  402c4a:	89 fb                	mov    %edi,%ebx
  402c4c:	85 ff                	test   %edi,%edi
  402c4e:	79 05                	jns    402c55 <init_timeout+0x10>
  402c50:	bb 00 00 00 00       	mov    $0x0,%ebx
  402c55:	be 09 22 40 00       	mov    $0x402209,%esi
  402c5a:	bf 0e 00 00 00       	mov    $0xe,%edi
  402c5f:	e8 fc e0 ff ff       	callq  400d60 <signal@plt>
  402c64:	89 df                	mov    %ebx,%edi
  402c66:	e8 b5 e0 ff ff       	callq  400d20 <alarm@plt>
  402c6b:	5b                   	pop    %rbx
  402c6c:	f3 c3                	repz retq 

0000000000402c6e <init_driver>:
  402c6e:	55                   	push   %rbp
  402c6f:	53                   	push   %rbx
  402c70:	48 83 ec 28          	sub    $0x28,%rsp
  402c74:	48 89 fd             	mov    %rdi,%rbp
  402c77:	64 48 8b 04 25 28 00 	mov    %fs:0x28,%rax
  402c7e:	00 00 
  402c80:	48 89 44 24 18       	mov    %rax,0x18(%rsp)
  402c85:	31 c0                	xor    %eax,%eax
  402c87:	be 01 00 00 00       	mov    $0x1,%esi
  402c8c:	bf 0d 00 00 00       	mov    $0xd,%edi
  402c91:	e8 ca e0 ff ff       	callq  400d60 <signal@plt>
  402c96:	be 01 00 00 00       	mov    $0x1,%esi
  402c9b:	bf 1d 00 00 00       	mov    $0x1d,%edi
  402ca0:	e8 bb e0 ff ff       	callq  400d60 <signal@plt>
  402ca5:	be 01 00 00 00       	mov    $0x1,%esi
  402caa:	bf 1d 00 00 00       	mov    $0x1d,%edi
  402caf:	e8 ac e0 ff ff       	callq  400d60 <signal@plt>
  402cb4:	ba 00 00 00 00       	mov    $0x0,%edx
  402cb9:	be 01 00 00 00       	mov    $0x1,%esi
  402cbe:	bf 02 00 00 00       	mov    $0x2,%edi
  402cc3:	e8 c8 e1 ff ff       	callq  400e90 <socket@plt>
  402cc8:	85 c0                	test   %eax,%eax
  402cca:	79 4f                	jns    402d1b <init_driver+0xad>
  402ccc:	48 b8 45 72 72 6f 72 	movabs $0x43203a726f727245,%rax
  402cd3:	3a 20 43 
  402cd6:	48 89 45 00          	mov    %rax,0x0(%rbp)
  402cda:	48 b8 6c 69 65 6e 74 	movabs $0x6e7520746e65696c,%rax
  402ce1:	20 75 6e 
  402ce4:	48 89 45 08          	mov    %rax,0x8(%rbp)
  402ce8:	48 b8 61 62 6c 65 20 	movabs $0x206f7420656c6261,%rax
  402cef:	74 6f 20 
  402cf2:	48 89 45 10          	mov    %rax,0x10(%rbp)
  402cf6:	48 b8 63 72 65 61 74 	movabs $0x7320657461657263,%rax
  402cfd:	65 20 73 
  402d00:	48 89 45 18          	mov    %rax,0x18(%rbp)
  402d04:	c7 45 20 6f 63 6b 65 	movl   $0x656b636f,0x20(%rbp)
  402d0b:	66 c7 45 24 74 00    	movw   $0x74,0x24(%rbp)
  402d11:	b8 ff ff ff ff       	mov    $0xffffffff,%eax
  402d16:	e9 2a 01 00 00       	jmpq   402e45 <init_driver+0x1d7>
  402d1b:	89 c3                	mov    %eax,%ebx
  402d1d:	bf c5 38 40 00       	mov    $0x4038c5,%edi
  402d22:	e8 49 e0 ff ff       	callq  400d70 <gethostbyname@plt>
  402d27:	48 85 c0             	test   %rax,%rax
  402d2a:	75 68                	jne    402d94 <init_driver+0x126>
  402d2c:	48 b8 45 72 72 6f 72 	movabs $0x44203a726f727245,%rax
  402d33:	3a 20 44 
  402d36:	48 89 45 00          	mov    %rax,0x0(%rbp)
  402d3a:	48 b8 4e 53 20 69 73 	movabs $0x6e7520736920534e,%rax
  402d41:	20 75 6e 
  402d44:	48 89 45 08          	mov    %rax,0x8(%rbp)
  402d48:	48 b8 61 62 6c 65 20 	movabs $0x206f7420656c6261,%rax
  402d4f:	74 6f 20 
  402d52:	48 89 45 10          	mov    %rax,0x10(%rbp)
  402d56:	48 b8 72 65 73 6f 6c 	movabs $0x2065766c6f736572,%rax
  402d5d:	76 65 20 
  402d60:	48 89 45 18          	mov    %rax,0x18(%rbp)
  402d64:	48 b8 73 65 72 76 65 	movabs $0x6120726576726573,%rax
  402d6b:	72 20 61 
  402d6e:	48 89 45 20          	mov    %rax,0x20(%rbp)
  402d72:	c7 45 28 64 64 72 65 	movl   $0x65726464,0x28(%rbp)
  402d79:	66 c7 45 2c 73 73    	movw   $0x7373,0x2c(%rbp)
  402d7f:	c6 45 2e 00          	movb   $0x0,0x2e(%rbp)
  402d83:	89 df                	mov    %ebx,%edi
  402d85:	e8 a6 df ff ff       	callq  400d30 <close@plt>
  402d8a:	b8 ff ff ff ff       	mov    $0xffffffff,%eax
  402d8f:	e9 b1 00 00 00       	jmpq   402e45 <init_driver+0x1d7>
  402d94:	48 c7 04 24 00 00 00 	movq   $0x0,(%rsp)
  402d9b:	00 
  402d9c:	48 c7 44 24 08 00 00 	movq   $0x0,0x8(%rsp)
  402da3:	00 00 
  402da5:	66 c7 04 24 02 00    	movw   $0x2,(%rsp)
  402dab:	48 63 50 14          	movslq 0x14(%rax),%rdx
  402daf:	48 8b 40 18          	mov    0x18(%rax),%rax
  402db3:	48 8b 30             	mov    (%rax),%rsi
  402db6:	48 8d 7c 24 04       	lea    0x4(%rsp),%rdi
  402dbb:	b9 0c 00 00 00       	mov    $0xc,%ecx
  402dc0:	e8 bb df ff ff       	callq  400d80 <__memmove_chk@plt>
  402dc5:	66 c7 44 24 02 3c 9a 	movw   $0x9a3c,0x2(%rsp)
  402dcc:	ba 10 00 00 00       	mov    $0x10,%edx
  402dd1:	48 89 e6             	mov    %rsp,%rsi
  402dd4:	89 df                	mov    %ebx,%edi
  402dd6:	e8 85 e0 ff ff       	callq  400e60 <connect@plt>
  402ddb:	85 c0                	test   %eax,%eax
  402ddd:	79 50                	jns    402e2f <init_driver+0x1c1>
  402ddf:	48 b8 45 72 72 6f 72 	movabs $0x55203a726f727245,%rax
  402de6:	3a 20 55 
  402de9:	48 89 45 00          	mov    %rax,0x0(%rbp)
  402ded:	48 b8 6e 61 62 6c 65 	movabs $0x6f7420656c62616e,%rax
  402df4:	20 74 6f 
  402df7:	48 89 45 08          	mov    %rax,0x8(%rbp)
  402dfb:	48 b8 20 63 6f 6e 6e 	movabs $0x7463656e6e6f6320,%rax
  402e02:	65 63 74 
  402e05:	48 89 45 10          	mov    %rax,0x10(%rbp)
  402e09:	48 b8 20 74 6f 20 73 	movabs $0x76726573206f7420,%rax
  402e10:	65 72 76 
  402e13:	48 89 45 18          	mov    %rax,0x18(%rbp)
  402e17:	66 c7 45 20 65 72    	movw   $0x7265,0x20(%rbp)
  402e1d:	c6 45 22 00          	movb   $0x0,0x22(%rbp)
  402e21:	89 df                	mov    %ebx,%edi
  402e23:	e8 08 df ff ff       	callq  400d30 <close@plt>
  402e28:	b8 ff ff ff ff       	mov    $0xffffffff,%eax
  402e2d:	eb 16                	jmp    402e45 <init_driver+0x1d7>
  402e2f:	89 df                	mov    %ebx,%edi
  402e31:	e8 fa de ff ff       	callq  400d30 <close@plt>
  402e36:	66 c7 45 00 4f 4b    	movw   $0x4b4f,0x0(%rbp)
  402e3c:	c6 45 02 00          	movb   $0x0,0x2(%rbp)
  402e40:	b8 00 00 00 00       	mov    $0x0,%eax
  402e45:	48 8b 4c 24 18       	mov    0x18(%rsp),%rcx
  402e4a:	64 48 33 0c 25 28 00 	xor    %fs:0x28,%rcx
  402e51:	00 00 
  402e53:	74 05                	je     402e5a <init_driver+0x1ec>
  402e55:	e8 96 de ff ff       	callq  400cf0 <__stack_chk_fail@plt>
  402e5a:	48 83 c4 28          	add    $0x28,%rsp
  402e5e:	5b                   	pop    %rbx
  402e5f:	5d                   	pop    %rbp
  402e60:	c3                   	retq   

0000000000402e61 <driver_post>:
  402e61:	53                   	push   %rbx
  402e62:	4c 89 cb             	mov    %r9,%rbx
  402e65:	45 85 c0             	test   %r8d,%r8d
  402e68:	74 27                	je     402e91 <driver_post+0x30>
  402e6a:	48 89 ca             	mov    %rcx,%rdx
  402e6d:	be d3 38 40 00       	mov    $0x4038d3,%esi
  402e72:	bf 01 00 00 00       	mov    $0x1,%edi
  402e77:	b8 00 00 00 00       	mov    $0x0,%eax
  402e7c:	e8 7f df ff ff       	callq  400e00 <__printf_chk@plt>
  402e81:	66 c7 03 4f 4b       	movw   $0x4b4f,(%rbx)
  402e86:	c6 43 02 00          	movb   $0x0,0x2(%rbx)
  402e8a:	b8 00 00 00 00       	mov    $0x0,%eax
  402e8f:	eb 3f                	jmp    402ed0 <driver_post+0x6f>
  402e91:	48 85 ff             	test   %rdi,%rdi
  402e94:	74 2c                	je     402ec2 <driver_post+0x61>
  402e96:	80 3f 00             	cmpb   $0x0,(%rdi)
  402e99:	74 27                	je     402ec2 <driver_post+0x61>
  402e9b:	48 83 ec 08          	sub    $0x8,%rsp
  402e9f:	41 51                	push   %r9
  402ea1:	49 89 c9             	mov    %rcx,%r9
  402ea4:	49 89 d0             	mov    %rdx,%r8
  402ea7:	48 89 f9             	mov    %rdi,%rcx
  402eaa:	48 89 f2             	mov    %rsi,%rdx
  402ead:	be 9a 3c 00 00       	mov    $0x3c9a,%esi
  402eb2:	bf c5 38 40 00       	mov    $0x4038c5,%edi
  402eb7:	e8 19 f6 ff ff       	callq  4024d5 <submitr>
  402ebc:	48 83 c4 10          	add    $0x10,%rsp
  402ec0:	eb 0e                	jmp    402ed0 <driver_post+0x6f>
  402ec2:	66 c7 03 4f 4b       	movw   $0x4b4f,(%rbx)
  402ec7:	c6 43 02 00          	movb   $0x0,0x2(%rbx)
  402ecb:	b8 00 00 00 00       	mov    $0x0,%eax
  402ed0:	5b                   	pop    %rbx
  402ed1:	c3                   	retq   

0000000000402ed2 <check>:
  402ed2:	89 f8                	mov    %edi,%eax
  402ed4:	c1 e8 1c             	shr    $0x1c,%eax
  402ed7:	85 c0                	test   %eax,%eax
  402ed9:	74 1d                	je     402ef8 <check+0x26>
  402edb:	b9 00 00 00 00       	mov    $0x0,%ecx
  402ee0:	eb 0b                	jmp    402eed <check+0x1b>
  402ee2:	89 f8                	mov    %edi,%eax
  402ee4:	d3 e8                	shr    %cl,%eax
  402ee6:	3c 0a                	cmp    $0xa,%al
  402ee8:	74 14                	je     402efe <check+0x2c>
  402eea:	83 c1 08             	add    $0x8,%ecx
  402eed:	83 f9 1f             	cmp    $0x1f,%ecx
  402ef0:	7e f0                	jle    402ee2 <check+0x10>
  402ef2:	b8 01 00 00 00       	mov    $0x1,%eax
  402ef7:	c3                   	retq   
  402ef8:	b8 00 00 00 00       	mov    $0x0,%eax
  402efd:	c3                   	retq   
  402efe:	b8 00 00 00 00       	mov    $0x0,%eax
  402f03:	c3                   	retq   

0000000000402f04 <gencookie>:
  402f04:	53                   	push   %rbx
  402f05:	83 c7 01             	add    $0x1,%edi
  402f08:	e8 93 dd ff ff       	callq  400ca0 <srandom@plt>
  402f0d:	e8 ae de ff ff       	callq  400dc0 <random@plt>
  402f12:	89 c3                	mov    %eax,%ebx
  402f14:	89 c7                	mov    %eax,%edi
  402f16:	e8 b7 ff ff ff       	callq  402ed2 <check>
  402f1b:	85 c0                	test   %eax,%eax
  402f1d:	74 ee                	je     402f0d <gencookie+0x9>
  402f1f:	89 d8                	mov    %ebx,%eax
  402f21:	5b                   	pop    %rbx
  402f22:	c3                   	retq   
  402f23:	66 2e 0f 1f 84 00 00 	nopw   %cs:0x0(%rax,%rax,1)
  402f2a:	00 00 00 
  402f2d:	0f 1f 00             	nopl   (%rax)

0000000000402f30 <__libc_csu_init>:
  402f30:	41 57                	push   %r15
  402f32:	41 56                	push   %r14
  402f34:	41 89 ff             	mov    %edi,%r15d
  402f37:	41 55                	push   %r13
  402f39:	41 54                	push   %r12
  402f3b:	4c 8d 25 ce 1e 20 00 	lea    0x201ece(%rip),%r12        # 604e10 <__frame_dummy_init_array_entry>
  402f42:	55                   	push   %rbp
  402f43:	48 8d 2d ce 1e 20 00 	lea    0x201ece(%rip),%rbp        # 604e18 <__init_array_end>
  402f4a:	53                   	push   %rbx
  402f4b:	49 89 f6             	mov    %rsi,%r14
  402f4e:	49 89 d5             	mov    %rdx,%r13
  402f51:	4c 29 e5             	sub    %r12,%rbp
  402f54:	48 83 ec 08          	sub    $0x8,%rsp
  402f58:	48 c1 fd 03          	sar    $0x3,%rbp
  402f5c:	e8 e7 dc ff ff       	callq  400c48 <_init>
  402f61:	48 85 ed             	test   %rbp,%rbp
  402f64:	74 20                	je     402f86 <__libc_csu_init+0x56>
  402f66:	31 db                	xor    %ebx,%ebx
  402f68:	0f 1f 84 00 00 00 00 	nopl   0x0(%rax,%rax,1)
  402f6f:	00 
  402f70:	4c 89 ea             	mov    %r13,%rdx
  402f73:	4c 89 f6             	mov    %r14,%rsi
  402f76:	44 89 ff             	mov    %r15d,%edi
  402f79:	41 ff 14 dc          	callq  *(%r12,%rbx,8)
  402f7d:	48 83 c3 01          	add    $0x1,%rbx
  402f81:	48 39 eb             	cmp    %rbp,%rbx
  402f84:	75 ea                	jne    402f70 <__libc_csu_init+0x40>
  402f86:	48 83 c4 08          	add    $0x8,%rsp
  402f8a:	5b                   	pop    %rbx
  402f8b:	5d                   	pop    %rbp
  402f8c:	41 5c                	pop    %r12
  402f8e:	41 5d                	pop    %r13
  402f90:	41 5e                	pop    %r14
  402f92:	41 5f                	pop    %r15
  402f94:	c3                   	retq   
  402f95:	90                   	nop
  402f96:	66 2e 0f 1f 84 00 00 	nopw   %cs:0x0(%rax,%rax,1)
  402f9d:	00 00 00 

0000000000402fa0 <__libc_csu_fini>:
  402fa0:	f3 c3                	repz retq 

Disassembly of section .fini:

0000000000402fa4 <_fini>:
  402fa4:	48 83 ec 08          	sub    $0x8,%rsp
  402fa8:	48 83 c4 08          	add    $0x8,%rsp
  402fac:	c3                   	retq   
